	.def	 _main;
	.scl	2;
	.type	32;
	.endef
	.text
	.globl	_main
	.align	16, 0x90
_main:                                  # @main
	.cfi_startproc
	.cfi_personality 0, ___shadow_personality_v0
Leh_func_begin0:
	.cfi_lsda 0, Lexception0
# BB#0:
	pushl	%ebp
Ltmp6:
	.cfi_def_cfa_offset 8
Ltmp7:
	.cfi_offset %ebp, -8
	movl	%esp, %ebp
Ltmp8:
	.cfi_def_cfa_register %ebp
	pushl	%ebx
	pushl	%edi
	pushl	%esi
	subl	$24, %esp
Ltmp9:
	.cfi_offset %esi, -20
Ltmp10:
	.cfi_offset %edi, -16
Ltmp11:
	.cfi_offset %ebx, -12
	calll	___main
	movl	8(%ebp), %eax
	decl	%eax
	movl	%eax, -20(%ebp)         # 4-byte Spill
	movl	%eax, 4(%esp)
	movl	$__Pshadow_Pstandard_CString_Mclass, (%esp)
	movl	12(%ebp), %ebx
	addl	$4, %ebx
	calll	__Pshadow_Pstandard_CClass_Mallocate_Pshadow_Pstandard_Cint
	movl	%eax, -24(%ebp)         # 4-byte Spill
	jmp	LBB0_2
	.align	16, 0x90
LBB0_1:                                 #   in Loop: Header=BB0_2 Depth=1
	movl	$__Pshadow_Pstandard_CString_Mclass, (%esp)
	calll	__Pshadow_Pstandard_CClass_Mallocate
	movl	%eax, %edi
	movl	%esi, 4(%edi)
	movl	%esi, (%esp)
	calll	_strlen
	movl	$__Pshadow_Pstandard_CString_Mclass, (%edi)
	movl	%eax, 8(%edi)
	movl	-16(%ebp), %eax         # 4-byte Reload
	movl	%edi, (%eax)
	addl	$4, %ebx
	addl	$4, %eax
LBB0_2:                                 # =>This Inner Loop Header: Depth=1
	movl	%eax, -16(%ebp)         # 4-byte Spill
	movl	(%ebx), %esi
	testl	%esi, %esi
	jne	LBB0_1
# BB#3:
	movl	$__Pshadow_Ptest_CSortMain_Mclass, (%esp)
	calll	__Pshadow_Pstandard_CClass_Mallocate
	movl	%eax, (%esp)
	calll	__Pshadow_Ptest_CSortMain_Mcreate
Ltmp0:
	movl	-20(%ebp), %ecx         # 4-byte Reload
	movl	%ecx, 8(%esp)
	movl	-24(%ebp), %ecx         # 4-byte Reload
	movl	%ecx, 4(%esp)
	movl	%eax, (%esp)
	calll	__Pshadow_Ptest_CSortMain_Mmain_Pshadow_Pstandard_CString_A1
Ltmp1:
LBB0_4:
	addl	$24, %esp
	popl	%esi
	popl	%edi
	popl	%ebx
	popl	%ebp
	ret
LBB0_5:
Ltmp2:
	movl	%eax, (%esp)
	calll	___shadow_catch
	movl	%eax, %edi
	movl	__Pshadow_Pio_CConsole_Minstance, %esi
	testl	%esi, %esi
	jne	LBB0_7
# BB#6:
	movl	$__Pshadow_Pio_CConsole_Mclass, (%esp)
	calll	__Pshadow_Pstandard_CClass_Mallocate
	movl	%eax, (%esp)
	calll	__Pshadow_Pio_CConsole_Mcreate
	movl	%eax, %esi
	movl	%esi, __Pshadow_Pio_CConsole_Minstance
LBB0_7:
	movl	%edi, (%esp)
	calll	__Pshadow_Pstandard_CObject_MgetClass
	movl	%eax, 4(%esp)
	movl	%esi, (%esp)
	calll	__Pshadow_Pio_CConsole_MprintError_Pshadow_Pstandard_CObject
	movl	4(%edi), %edi
	cmpl	$0, 8(%edi)
	je	LBB0_9
# BB#8:
	movl	%esi, (%esp)
	movl	$L_separator, 4(%esp)
	calll	__Pshadow_Pio_CConsole_MprintError_Pshadow_Pstandard_CString
	movl	%edi, 4(%esp)
	movl	%esi, (%esp)
	calll	__Pshadow_Pio_CConsole_MprintError_Pshadow_Pstandard_CString
LBB0_9:
	movl	%esi, (%esp)
	calll	__Pshadow_Pio_CConsole_MprintErrorLine
	movl	$1, %eax
	jmp	LBB0_4
	.cfi_endproc
Leh_func_end0:
	.section	.gcc_except_table,"r"
	.align	4
GCC_except_table0:
Lexception0:
	.byte	255                     # @LPStart Encoding = omit
	.byte	0                       # @TType Encoding = absptr
	.asciz	 "\257\200"             # @TType base offset
	.byte	3                       # Call site Encoding = udata4
	.byte	39                      # Call site table length
Lset0 = Leh_func_begin0-Leh_func_begin0 # >> Call Site 1 <<
	.long	Lset0
Lset1 = Ltmp0-Leh_func_begin0           #   Call between Leh_func_begin0 and Ltmp0
	.long	Lset1
	.long	0                       #     has no landing pad
	.byte	0                       #   On action: cleanup
Lset2 = Ltmp0-Leh_func_begin0           # >> Call Site 2 <<
	.long	Lset2
Lset3 = Ltmp1-Ltmp0                     #   Call between Ltmp0 and Ltmp1
	.long	Lset3
Lset4 = Ltmp2-Leh_func_begin0           #     jumps to Ltmp2
	.long	Lset4
	.byte	1                       #   On action: 1
Lset5 = Ltmp1-Leh_func_begin0           # >> Call Site 3 <<
	.long	Lset5
Lset6 = Leh_func_end0-Ltmp1             #   Call between Ltmp1 and Leh_func_end0
	.long	Lset6
	.long	0                       #     has no landing pad
	.byte	0                       #   On action: cleanup
	.byte	1                       # >> Action Record 1 <<
                                        #   Catch TypeInfo 1
	.byte	0                       #   No further actions
                                        # >> Catch TypeInfos <<
	.long	0                       # TypeInfo 1
	.align	4

	.def	 __Pshadow_Pstandard_CSystem_MnanoTime;
	.scl	2;
	.type	32;
	.endef
	.text
	.globl	__Pshadow_Pstandard_CSystem_MnanoTime
	.align	16, 0x90
__Pshadow_Pstandard_CSystem_MnanoTime:  # @_Pshadow_Pstandard_CSystem_MnanoTime
	.cfi_startproc
# BB#0:
	pushl	%ebp
Ltmp14:
	.cfi_def_cfa_offset 8
Ltmp15:
	.cfi_offset %ebp, -8
	movl	%esp, %ebp
Ltmp16:
	.cfi_def_cfa_register %ebp
	andl	$-8, %esp
	subl	$32, %esp
	leal	24(%esp), %eax
	movl	%eax, (%esp)
	calll	_QueryPerformanceFrequency@4
	subl	$4, %esp
	testl	%eax, %eax
	je	LBB1_3
# BB#1:
	leal	16(%esp), %eax
	movl	%eax, (%esp)
	calll	_QueryPerformanceCounter@4
	subl	$4, %esp
	testl	%eax, %eax
	je	LBB1_3
# BB#2:
	movl	24(%esp), %eax
	movl	28(%esp), %ecx
	movl	%ecx, 12(%esp)
	movl	%eax, 8(%esp)
	movl	$1000000000, %eax       # imm = 0x3B9ACA00
	mull	16(%esp)
	movl	%eax, (%esp)
	imull	$1000000000, 20(%esp), %eax # imm = 0x3B9ACA00
	addl	%edx, %eax
	movl	%eax, 4(%esp)
	calll	___udivdi3
	jmp	LBB1_4
LBB1_3:
	xorl	%eax, %eax
	xorl	%edx, %edx
LBB1_4:
	movl	%ebp, %esp
	popl	%ebp
	ret
	.cfi_endproc

	.def	 __Pshadow_Pio_CConsole_Mprint_Pshadow_Pstandard_CString;
	.scl	2;
	.type	32;
	.endef
	.globl	__Pshadow_Pio_CConsole_Mprint_Pshadow_Pstandard_CString
	.align	16, 0x90
__Pshadow_Pio_CConsole_Mprint_Pshadow_Pstandard_CString: # @_Pshadow_Pio_CConsole_Mprint_Pshadow_Pstandard_CString
	.cfi_startproc
# BB#0:
	pushl	%ebp
Ltmp22:
	.cfi_def_cfa_offset 8
	pushl	%ebx
Ltmp23:
	.cfi_def_cfa_offset 12
	pushl	%edi
Ltmp24:
	.cfi_def_cfa_offset 16
	pushl	%esi
Ltmp25:
	.cfi_def_cfa_offset 20
	subl	$28, %esp
Ltmp26:
	.cfi_def_cfa_offset 48
Ltmp27:
	.cfi_offset %esi, -20
Ltmp28:
	.cfi_offset %edi, -16
Ltmp29:
	.cfi_offset %ebx, -12
Ltmp30:
	.cfi_offset %ebp, -8
	movl	$-11, (%esp)
	calll	_GetStdHandle@4
	subl	$4, %esp
	movl	%eax, %edi
	movl	52(%esp), %eax
	movl	4(%eax), %ebp
	movl	8(%eax), %esi
	movb	12(%eax), %al
	movl	48(%esp), %ebx
	cmpb	$1, %al
	jne	LBB2_3
# BB#1:
	leal	24(%esp), %eax
	movl	%eax, 12(%esp)
	movl	%esi, 8(%esp)
	movl	%ebp, 4(%esp)
	movl	%edi, (%esp)
	movl	$0, 16(%esp)
	calll	_WriteConsoleA@20
	subl	$20, %esp
	movl	%ebx, %eax
	jmp	LBB2_2
LBB2_3:
	leal	(%esi,%esi), %eax
	movl	%eax, (%esp)
	calll	_malloc
	movl	%eax, %ebx
	movl	%esi, 20(%esp)
	movl	%ebx, 16(%esp)
	movl	%esi, 12(%esp)
	movl	%ebp, 8(%esp)
	movl	$0, 4(%esp)
	movl	$65001, (%esp)          # imm = 0xFDE9
	calll	_MultiByteToWideChar@24
	subl	$24, %esp
	leal	24(%esp), %ecx
	movl	%ecx, 12(%esp)
	movl	%eax, 8(%esp)
	movl	%ebx, 4(%esp)
	movl	%edi, (%esp)
	movl	$0, 16(%esp)
	calll	_WriteConsoleW@20
	subl	$20, %esp
	movl	%ebx, (%esp)
	calll	_free
	movl	48(%esp), %eax
LBB2_2:
	addl	$28, %esp
	popl	%esi
	popl	%edi
	popl	%ebx
	popl	%ebp
	ret
	.cfi_endproc

	.def	 __Pshadow_Pio_CConsole_MprintLine;
	.scl	2;
	.type	32;
	.endef
	.globl	__Pshadow_Pio_CConsole_MprintLine
	.align	16, 0x90
__Pshadow_Pio_CConsole_MprintLine:      # @_Pshadow_Pio_CConsole_MprintLine
	.cfi_startproc
# BB#0:
	subl	$24, %esp
Ltmp32:
	.cfi_def_cfa_offset 28
	movl	$-11, (%esp)
	calll	_GetStdHandle@4
	subl	$4, %esp
	leal	20(%esp), %ecx
	movl	%ecx, 12(%esp)
	movl	%eax, (%esp)
	movl	$0, 16(%esp)
	movl	$2, 8(%esp)
	movl	$L_newline, 4(%esp)
	calll	_WriteConsoleA@20
	subl	$20, %esp
	movl	28(%esp), %eax
	addl	$24, %esp
	ret
	.cfi_endproc

	.def	 __Pshadow_Pio_CConsole_MprintError_Pshadow_Pstandard_CString;
	.scl	2;
	.type	32;
	.endef
	.globl	__Pshadow_Pio_CConsole_MprintError_Pshadow_Pstandard_CString
	.align	16, 0x90
__Pshadow_Pio_CConsole_MprintError_Pshadow_Pstandard_CString: # @_Pshadow_Pio_CConsole_MprintError_Pshadow_Pstandard_CString
	.cfi_startproc
# BB#0:
	pushl	%ebp
Ltmp38:
	.cfi_def_cfa_offset 8
	pushl	%ebx
Ltmp39:
	.cfi_def_cfa_offset 12
	pushl	%edi
Ltmp40:
	.cfi_def_cfa_offset 16
	pushl	%esi
Ltmp41:
	.cfi_def_cfa_offset 20
	subl	$28, %esp
Ltmp42:
	.cfi_def_cfa_offset 48
Ltmp43:
	.cfi_offset %esi, -20
Ltmp44:
	.cfi_offset %edi, -16
Ltmp45:
	.cfi_offset %ebx, -12
Ltmp46:
	.cfi_offset %ebp, -8
	movl	$-12, (%esp)
	calll	_GetStdHandle@4
	subl	$4, %esp
	movl	%eax, %edi
	movl	52(%esp), %eax
	movl	4(%eax), %ebp
	movl	8(%eax), %esi
	movb	12(%eax), %al
	movl	48(%esp), %ebx
	cmpb	$1, %al
	jne	LBB4_3
# BB#1:
	leal	24(%esp), %eax
	movl	%eax, 12(%esp)
	movl	%esi, 8(%esp)
	movl	%ebp, 4(%esp)
	movl	%edi, (%esp)
	movl	$0, 16(%esp)
	calll	_WriteConsoleA@20
	subl	$20, %esp
	movl	%ebx, %eax
	jmp	LBB4_2
LBB4_3:
	leal	(%esi,%esi), %eax
	movl	%eax, (%esp)
	calll	_malloc
	movl	%eax, %ebx
	movl	%esi, 20(%esp)
	movl	%ebx, 16(%esp)
	movl	%esi, 12(%esp)
	movl	%ebp, 8(%esp)
	movl	$0, 4(%esp)
	movl	$65001, (%esp)          # imm = 0xFDE9
	calll	_MultiByteToWideChar@24
	subl	$24, %esp
	leal	24(%esp), %ecx
	movl	%ecx, 12(%esp)
	movl	%eax, 8(%esp)
	movl	%ebx, 4(%esp)
	movl	%edi, (%esp)
	movl	$0, 16(%esp)
	calll	_WriteConsoleW@20
	subl	$20, %esp
	movl	%ebx, (%esp)
	calll	_free
	movl	48(%esp), %eax
LBB4_2:
	addl	$28, %esp
	popl	%esi
	popl	%edi
	popl	%ebx
	popl	%ebp
	ret
	.cfi_endproc

	.def	 __Pshadow_Pio_CConsole_MprintErrorLine;
	.scl	2;
	.type	32;
	.endef
	.globl	__Pshadow_Pio_CConsole_MprintErrorLine
	.align	16, 0x90
__Pshadow_Pio_CConsole_MprintErrorLine: # @_Pshadow_Pio_CConsole_MprintErrorLine
	.cfi_startproc
# BB#0:
	subl	$24, %esp
Ltmp48:
	.cfi_def_cfa_offset 28
	movl	$-12, (%esp)
	calll	_GetStdHandle@4
	subl	$4, %esp
	leal	20(%esp), %ecx
	movl	%ecx, 12(%esp)
	movl	%eax, (%esp)
	movl	$0, 16(%esp)
	movl	$2, 8(%esp)
	movl	$L_newline, 4(%esp)
	calll	_WriteConsoleA@20
	subl	$20, %esp
	movl	28(%esp), %eax
	addl	$24, %esp
	ret
	.cfi_endproc

	.def	 L_shadow.exception.cleanup;
	.scl	2;
	.type	32;
	.endef
	.align	16, 0x90
L_shadow.exception.cleanup:             # @shadow.exception.cleanup
	.cfi_startproc
# BB#0:                                 # %entry
	pushl	%eax
Ltmp50:
	.cfi_def_cfa_offset 8
	movl	12(%esp), %eax
	movl	%eax, (%esp)
	calll	_free
	popl	%eax
	ret
	.cfi_endproc

	.def	 L_size_of_encoded_value;
	.scl	2;
	.type	32;
	.endef
	.align	16, 0x90
L_size_of_encoded_value:                # @size_of_encoded_value
# BB#0:                                 # %entry
	movb	4(%esp), %al
	cmpb	$-1, %al
	jne	LBB7_1
# BB#4:                                 # %return.0
	xorl	%eax, %eax
	ret
LBB7_1:                                 # %continue
	andb	$7, %al
	cmpb	$4, %al
	ja	LBB7_8
# BB#2:                                 # %continue
	movzbl	%al, %eax
	jmpl	*LJTI7_0(,%eax,4)
LBB7_3:                                 # %return.sizeof.ptr
	movl	$4, %eax
	ret
LBB7_5:                                 # %return.2
	movl	$2, %eax
	ret
LBB7_6:                                 # %return.4
	movl	$4, %eax
	ret
LBB7_7:                                 # %return.8
	movl	$8, %eax
	ret
LBB7_8:                                 # %abort
	calll	_abort
	.section	.rdata,"r"
	.align	4
LJTI7_0:
	.long	LBB7_3
	.long	LBB7_8
	.long	LBB7_5
	.long	LBB7_6
	.long	LBB7_7

	.def	 L_base_of_encoded_value;
	.scl	2;
	.type	32;
	.endef
	.text
	.align	16, 0x90
L_base_of_encoded_value:                # @base_of_encoded_value
# BB#0:                                 # %entry
	pushl	%eax
	movb	8(%esp), %al
	cmpb	$-1, %al
	je	LBB8_4
# BB#1:                                 # %continue
	andb	$112, %al
	cmpb	$79, %al
	ja	LBB8_12
# BB#2:                                 # %continue
	cmpb	$15, %al
	ja	LBB8_5
# BB#3:                                 # %continue
	testb	%al, %al
	jne	LBB8_13
	jmp	LBB8_4
LBB8_12:                                # %continue
	cmpb	$80, %al
	jne	LBB8_13
LBB8_4:                                 # %ret.0
	xorl	%eax, %eax
	popl	%edx
	ret
LBB8_5:                                 # %continue
	movl	12(%esp), %ecx
	cmpb	$63, %al
	ja	LBB8_10
# BB#6:                                 # %continue
	cmpb	$16, %al
	je	LBB8_4
# BB#7:                                 # %continue
	cmpb	$32, %al
	jne	LBB8_8
# BB#14:                                # %ret.text
	movl	%ecx, (%esp)
	calll	__Unwind_GetTextRelBase
	popl	%edx
	ret
LBB8_10:                                # %continue
	cmpb	$64, %al
	jne	LBB8_13
# BB#11:                                # %ret.func
	movl	%ecx, (%esp)
	calll	__Unwind_GetRegionStart
	popl	%edx
	ret
LBB8_8:                                 # %continue
	cmpb	$48, %al
	jne	LBB8_13
# BB#9:                                 # %ret.data
	movl	%ecx, (%esp)
	calll	__Unwind_GetDataRelBase
	popl	%edx
	ret
LBB8_13:                                # %abort
	calll	_abort

	.def	 L_read_uleb128;
	.scl	2;
	.type	32;
	.endef
	.align	16, 0x90
L_read_uleb128:                         # @read_uleb128
# BB#0:                                 # %entry
	pushl	%ebp
	pushl	%ebx
	pushl	%edi
	pushl	%esi
	subl	$8, %esp
	xorl	%ecx, %ecx
	movl	28(%esp), %eax
	xorl	%esi, %esi
	xorl	%edi, %edi
	xorl	%ebp, %ebp
	movl	$0, %ebx
	.align	16, 0x90
LBB9_1:                                 # %loop
                                        # =>This Inner Loop Header: Depth=1
	movl	%esi, 4(%esp)           # 4-byte Spill
	movzbl	(%eax), %edx
	movl	%edx, (%esp)            # 4-byte Spill
	andl	$127, %edx
	xorl	%esi, %esi
	shldl	%cl, %edx, %esi
	shll	%cl, %edx
	testb	$32, %cl
	cmovnel	%edx, %esi
	cmovnel	%ebx, %edx
	orl	%esi, %ebp
	movl	4(%esp), %esi           # 4-byte Reload
	addl	$7, %ecx
	adcl	$0, %esi
	orl	%edx, %edi
	incl	%eax
	movl	(%esp), %edx            # 4-byte Reload
	testb	$-128, %dl
	jne	LBB9_1
# BB#2:                                 # %loop.end
	movl	32(%esp), %ecx
	movl	%edi, (%ecx)
	addl	$8, %esp
	popl	%esi
	popl	%edi
	popl	%ebx
	popl	%ebp
	ret

	.def	 L_read_sleb128;
	.scl	2;
	.type	32;
	.endef
	.align	16, 0x90
L_read_sleb128:                         # @read_sleb128
# BB#0:                                 # %entry
	pushl	%ebp
	pushl	%ebx
	pushl	%edi
	pushl	%esi
	subl	$8, %esp
	xorl	%ecx, %ecx
	movl	28(%esp), %edi
	xorl	%ebp, %ebp
	xorl	%esi, %esi
	xorl	%edx, %edx
	.align	16, 0x90
LBB10_1:                                # %loop
                                        # =>This Inner Loop Header: Depth=1
	movl	%esi, 4(%esp)           # 4-byte Spill
	movzbl	(%edi), %ebx
	movl	%ebx, (%esp)            # 4-byte Spill
	andl	$127, %ebx
	xorl	%esi, %esi
	shldl	%cl, %ebx, %esi
	shll	%cl, %ebx
	testb	$32, %cl
	cmovnel	%ebx, %esi
	movl	%edi, %eax
	movl	$0, %edi
	cmovnel	%edi, %ebx
	movl	%eax, %edi
	orl	%esi, %edx
	movl	4(%esp), %esi           # 4-byte Reload
	addl	$7, %ecx
	adcl	$0, %ebp
	orl	%ebx, %esi
	movl	(%esp), %eax            # 4-byte Reload
	incl	%edi
	testb	$-128, %al
	jne	LBB10_1
# BB#2:                                 # %loop.end
	cmpl	$63, %ecx
	seta	%dl
	testl	%ebp, %ebp
	setne	%dh
	je	LBB10_4
# BB#3:                                 # %loop.end
	movb	%dh, %dl
LBB10_4:                                # %loop.end
	testb	%dl, %dl
	jne	LBB10_7
# BB#5:                                 # %continue
	testb	$64, %al
	je	LBB10_7
# BB#6:                                 # %negate
	movl	$1, %eax
	xorl	%edx, %edx
	shll	%cl, %eax
	testb	$32, %cl
	cmovnel	%edx, %eax
	negl	%eax
	orl	%eax, %esi
LBB10_7:                                # %return
	movl	32(%esp), %eax
	movl	%esi, (%eax)
	movl	%edi, %eax
	addl	$8, %esp
	popl	%esi
	popl	%edi
	popl	%ebx
	popl	%ebp
	ret

	.def	 L_read_encoded_value_with_base;
	.scl	2;
	.type	32;
	.endef
	.align	16, 0x90
L_read_encoded_value_with_base:         # @read_encoded_value_with_base
# BB#0:                                 # %entry
	pushl	%ebp
	pushl	%ebx
	pushl	%edi
	pushl	%esi
	subl	$16, %esp
	movl	48(%esp), %esi
	movl	44(%esp), %edi
	movb	36(%esp), %bl
	cmpb	$80, %bl
	jne	LBB11_2
# BB#1:                                 # %aligned
	addl	$3, %edi
	andl	$-4, %edi
	movl	(%edi), %eax
	movl	%eax, 8(%esp)
	addl	$4, %edi
	movl	%edi, 12(%esp)
	jmp	LBB11_14
LBB11_2:                                # %unaligned
	movb	%bl, %al
	andb	$15, %al
	cmpb	$12, %al
	ja	LBB11_15
# BB#3:                                 # %unaligned
	movl	40(%esp), %ebp
	movzbl	%al, %eax
	jmpl	*LJTI11_0(,%eax,4)
LBB11_9:                                # %abs
	movl	(%edi), %eax
	movl	%eax, 8(%esp)
	leal	4(%edi), %eax
	jmp	LBB11_11
LBB11_10:                               # %slong
	movl	(%edi), %eax
	movl	%eax, 8(%esp)
	leal	8(%edi), %eax
	jmp	LBB11_11
LBB11_4:                                # %uleb
	leal	8(%esp), %eax
	movl	%eax, 4(%esp)
	movl	%edi, (%esp)
	calll	L_read_uleb128
	jmp	LBB11_11
LBB11_6:                                # %ushort
	movzwl	(%edi), %eax
	jmp	LBB11_7
LBB11_5:                                # %sleb
	leal	8(%esp), %eax
	movl	%eax, 4(%esp)
	movl	%edi, (%esp)
	calll	L_read_sleb128
	jmp	LBB11_11
LBB11_8:                                # %sshort
	movswl	(%edi), %eax
LBB11_7:                                # %ushort
	movl	%eax, 8(%esp)
	leal	2(%edi), %eax
LBB11_11:                               # %slong
	movl	%eax, 12(%esp)
	movl	8(%esp), %eax
	testl	%eax, %eax
	je	LBB11_14
# BB#12:                                # %relative
	movb	%bl, %cl
	andb	$112, %cl
	cmpb	$16, %cl
	cmovel	%edi, %ebp
	addl	%ebp, %eax
	movl	%eax, 8(%esp)
	testb	$-128, %bl
	je	LBB11_14
# BB#13:                                # %indirect
	movl	(%eax), %eax
	movl	%eax, 8(%esp)
LBB11_14:                               # %return
	movl	8(%esp), %eax
	movl	%eax, (%esi)
	movl	12(%esp), %eax
	addl	$16, %esp
	popl	%esi
	popl	%edi
	popl	%ebx
	popl	%ebp
	ret
LBB11_15:                               # %abort
	calll	_abort
	.section	.rdata,"r"
	.align	4
LJTI11_0:
	.long	LBB11_9
	.long	LBB11_4
	.long	LBB11_6
	.long	LBB11_9
	.long	LBB11_10
	.long	LBB11_15
	.long	LBB11_15
	.long	LBB11_15
	.long	LBB11_15
	.long	LBB11_5
	.long	LBB11_8
	.long	LBB11_9
	.long	LBB11_10

	.def	 L_read_encoded_value;
	.scl	2;
	.type	32;
	.endef
	.text
	.align	16, 0x90
L_read_encoded_value:                   # @read_encoded_value
# BB#0:                                 # %entry
	pushl	%esi
	subl	$16, %esp
	movl	24(%esp), %eax
	movl	%eax, 4(%esp)
	movl	28(%esp), %esi
	movl	%esi, (%esp)
	calll	L_base_of_encoded_value
	movl	36(%esp), %ecx
	movl	%ecx, 12(%esp)
	movl	32(%esp), %ecx
	movl	%ecx, 8(%esp)
	movl	%eax, 4(%esp)
	movl	%esi, (%esp)
	calll	L_read_encoded_value_with_base
	addl	$16, %esp
	popl	%esi
	ret

	.def	 ___shadow_personality_v0;
	.scl	2;
	.type	32;
	.endef
	.globl	___shadow_personality_v0
	.align	16, 0x90
___shadow_personality_v0:               # @__shadow_personality_v0
	.cfi_startproc
# BB#0:                                 # %entry
	pushl	%ebp
Ltmp56:
	.cfi_def_cfa_offset 8
	pushl	%ebx
Ltmp57:
	.cfi_def_cfa_offset 12
	pushl	%edi
Ltmp58:
	.cfi_def_cfa_offset 16
	pushl	%esi
Ltmp59:
	.cfi_def_cfa_offset 20
	subl	$64, %esp
Ltmp60:
	.cfi_def_cfa_offset 84
Ltmp61:
	.cfi_offset %esi, -20
Ltmp62:
	.cfi_offset %edi, -16
Ltmp63:
	.cfi_offset %ebx, -12
Ltmp64:
	.cfi_offset %ebp, -8
	cmpl	$1, 84(%esp)
	jne	LBB13_22
# BB#1:                                 # %version.valid
	movl	104(%esp), %ebp
	movl	%ebp, (%esp)
	calll	__Unwind_GetLanguageSpecificData
	movl	%eax, %esi
	testl	%esi, %esi
	je	LBB13_27
# BB#2:                                 # %lsda.valid
	movl	%ebp, (%esp)
	calll	__Unwind_GetRegionStart
	movl	%eax, %edi
	movb	(%esi), %cl
	leal	1(%esi), %eax
	cmpb	$-1, %cl
	jne	LBB13_4
# BB#3:
	movl	%edi, %ecx
	jmp	LBB13_5
LBB13_4:                                # %landing_pad.start.read
	leal	60(%esp), %edx
	movl	%edx, 12(%esp)
	movl	%eax, 8(%esp)
	movzbl	%cl, %eax
	movl	%eax, 4(%esp)
	movl	%ebp, (%esp)
	calll	L_read_encoded_value
	movl	60(%esp), %ecx
LBB13_5:                                # %landing_pad.start.done
	movl	%edi, 48(%esp)          # 4-byte Spill
	movl	%ecx, 24(%esp)          # 4-byte Spill
	movl	88(%esp), %esi
	movb	(%eax), %bl
	incl	%eax
	movl	$0, 56(%esp)            # 4-byte Folded Spill
	cmpb	$-1, %bl
	je	LBB13_7
# BB#6:                                 # %ttype.read
	leal	60(%esp), %ecx
	movl	%ecx, 4(%esp)
	movl	%eax, (%esp)
	calll	L_read_uleb128
	movl	60(%esp), %ecx
	addl	%eax, %ecx
	movl	%ecx, 56(%esp)          # 4-byte Spill
LBB13_7:                                # %ttype.done
	movl	%esi, %ecx
	andl	$8, %ecx
	movl	%ecx, 16(%esp)          # 4-byte Spill
	andl	$1, %esi
	movl	%esi, 20(%esp)          # 4-byte Spill
	movb	(%eax), %bh
	leal	60(%esp), %ecx
	movl	%ecx, 4(%esp)
	incl	%eax
	movl	%eax, (%esp)
	calll	L_read_uleb128
	movl	%eax, %esi
	movl	60(%esp), %edi
	movl	%ebp, 4(%esp)
	movzbl	%bl, %eax
	movl	%eax, 52(%esp)          # 4-byte Spill
	movl	%eax, (%esp)
	calll	L_base_of_encoded_value
	movl	%eax, 44(%esp)          # 4-byte Spill
	movl	%ebp, (%esp)
	leal	-1(%esi,%edi), %edi
	movl	%edi, 40(%esp)          # 4-byte Spill
	calll	__Unwind_GetIP
	movl	%eax, 32(%esp)          # 4-byte Spill
	movzbl	%bh, %eax
	movl	%eax, 36(%esp)          # 4-byte Spill
	movl	%edi, %eax
	.align	16, 0x90
LBB13_8:                                # %find.action.cond
                                        # =>This Inner Loop Header: Depth=1
	cmpl	%eax, %esi
	ja	LBB13_22
# BB#9:                                 # %find.action.loop
                                        #   in Loop: Header=BB13_8 Depth=1
	leal	60(%esp), %ebx
	movl	%ebx, 12(%esp)
	movl	%esi, 8(%esp)
	movl	36(%esp), %esi          # 4-byte Reload
	movl	%esi, 4(%esp)
	movl	$0, (%esp)
	calll	L_read_encoded_value
	movl	60(%esp), %ebp
	addl	48(%esp), %ebp          # 4-byte Folded Reload
	movl	%ebx, 12(%esp)
	movl	%eax, 8(%esp)
	movl	%esi, 4(%esp)
	movl	$0, (%esp)
	calll	L_read_encoded_value
	movl	60(%esp), %edi
	movl	%ebx, 12(%esp)
	movl	%eax, 8(%esp)
	movl	%esi, 4(%esp)
	movl	$0, (%esp)
	calll	L_read_encoded_value
	movl	60(%esp), %ecx
	movl	%ecx, 28(%esp)          # 4-byte Spill
	movl	%ebx, 4(%esp)
	movl	%eax, (%esp)
	calll	L_read_uleb128
	movl	32(%esp), %ecx          # 4-byte Reload
	movl	%eax, %esi
	cmpl	%ebp, %ecx
	jbe	LBB13_22
# BB#10:                                # %find.action.check
                                        #   in Loop: Header=BB13_8 Depth=1
	addl	%edi, %ebp
	cmpl	%ebp, %ecx
	movl	40(%esp), %eax          # 4-byte Reload
	ja	LBB13_8
# BB#11:                                # %find.action.success
	movl	28(%esp), %ecx          # 4-byte Reload
	testl	%ecx, %ecx
	je	LBB13_27
# BB#12:                                # %landing_pad.valid
	movl	%eax, %ebp
	movl	60(%esp), %ebx
	addl	%ecx, 24(%esp)          # 4-byte Folded Spill
	testl	%ebx, %ebx
	leal	60(%esp), %eax
	je	LBB13_26
# BB#13:                                # %action_record.valid
	movl	%eax, %edi
	movl	52(%esp), %eax          # 4-byte Reload
	movl	%eax, (%esp)
	calll	L_size_of_encoded_value
	movl	%eax, %esi
	movl	$0, 48(%esp)            # 4-byte Folded Spill
	cmpl	$0, 16(%esp)            # 4-byte Folded Reload
	je	LBB13_15
# BB#14:
	movl	%edi, %ecx
	jmp	LBB13_17
LBB13_22:                               # %return.error
	movl	$3, %eax
	jmp	LBB13_23
LBB13_15:                               # %exception.class.check
	movl	92(%esp), %ecx
	xorl	L_shadow.exception.class, %ecx
	movl	96(%esp), %eax
	xorl	L_shadow.exception.class+4, %eax
	orl	%ecx, %eax
	movl	%edi, %ecx
	jne	LBB13_17
# BB#16:                                # %thrown.class.get
	movl	100(%esp), %eax
	movl	32(%eax), %eax
	movl	(%eax), %eax
	movl	%eax, 48(%esp)          # 4-byte Spill
LBB13_17:                               # %find.catch.preheader
	addl	%ebx, %ebp
	negl	%esi
	jmp	LBB13_18
	.align	16, 0x90
LBB13_21:                               # %action_record.next.valid
                                        #   in Loop: Header=BB13_18 Depth=1
	addl	%eax, %ebp
	movl	%edi, %ecx
LBB13_18:                               # %find.catch
                                        # =>This Inner Loop Header: Depth=1
	movl	%ecx, 4(%esp)
	movl	%ebp, (%esp)
	movl	%ecx, %edi
	calll	L_read_sleb128
	movl	%eax, %ebp
	movl	60(%esp), %ebx
	testl	%ebx, %ebx
	je	LBB13_26
# BB#19:                                # %find.catch.check
                                        #   in Loop: Header=BB13_18 Depth=1
	movl	%edi, 12(%esp)
	movl	44(%esp), %eax          # 4-byte Reload
	movl	%eax, 4(%esp)
	movl	52(%esp), %eax          # 4-byte Reload
	movl	%eax, (%esp)
	movl	%ebx, %eax
	imull	%esi, %eax
	addl	56(%esp), %eax          # 4-byte Folded Reload
	movl	%eax, 8(%esp)
	calll	L_read_encoded_value_with_base
	movl	60(%esp), %eax
	movl	%eax, 4(%esp)
	movl	48(%esp), %eax          # 4-byte Reload
	movl	%eax, (%esp)
	calll	__Pshadow_Pstandard_CClass_MisSubtype_Pshadow_Pstandard_CClass
	testb	$1, %al
	jne	LBB13_24
# BB#20:                                # %find.catch.next
                                        #   in Loop: Header=BB13_18 Depth=1
	movl	%edi, 4(%esp)
	movl	%ebp, (%esp)
	calll	L_read_sleb128
	movl	60(%esp), %eax
	testl	%eax, %eax
	je	LBB13_27
	jmp	LBB13_21
LBB13_26:                               # %found.cleanup
	xorl	%ebx, %ebx
	cmpl	$0, 20(%esp)            # 4-byte Folded Reload
	je	LBB13_28
LBB13_27:                               # %return.continue
	movl	$8, %eax
LBB13_23:                               # %return.error
	addl	$64, %esp
	popl	%esi
	popl	%edi
	popl	%ebx
	popl	%ebp
	ret
LBB13_24:                               # %found.catch
	cmpl	$0, 20(%esp)            # 4-byte Folded Reload
	je	LBB13_28
# BB#25:                                # %return.handler
	movl	$6, %eax
	jmp	LBB13_23
LBB13_28:                               # %install.context
	movl	100(%esp), %eax
	movl	%eax, 8(%esp)
	movl	104(%esp), %esi
	movl	%esi, (%esp)
	movl	$0, 4(%esp)
	calll	__Unwind_SetGR
	movl	%ebx, 8(%esp)
	movl	%esi, (%esp)
	movl	$1, 4(%esp)
	calll	__Unwind_SetGR
	movl	24(%esp), %eax          # 4-byte Reload
	movl	%eax, 4(%esp)
	movl	%esi, (%esp)
	calll	__Unwind_SetIP
	movl	$7, %eax
	jmp	LBB13_23
	.cfi_endproc

	.def	 ___shadow_catch;
	.scl	2;
	.type	32;
	.endef
	.globl	___shadow_catch
	.align	16, 0x90
___shadow_catch:                        # @__shadow_catch
	.cfi_startproc
# BB#0:                                 # %entry
	pushl	%esi
Ltmp67:
	.cfi_def_cfa_offset 8
	pushl	%eax
Ltmp68:
	.cfi_def_cfa_offset 12
Ltmp69:
	.cfi_offset %esi, -8
	movl	12(%esp), %eax
	movl	32(%eax), %esi
	movl	%eax, (%esp)
	calll	_free
	movl	%esi, %eax
	addl	$4, %esp
	popl	%esi
	ret
	.cfi_endproc

	.def	 __Pshadow_Pstandard_CException_Mthrow__;
	.scl	2;
	.type	32;
	.endef
	.globl	__Pshadow_Pstandard_CException_Mthrow__
	.align	16, 0x90
__Pshadow_Pstandard_CException_Mthrow__: # @_Pshadow_Pstandard_CException_Mthrow__
	.cfi_startproc
# BB#0:                                 # %entry
	pushl	%eax
Ltmp71:
	.cfi_def_cfa_offset 8
	movl	$36, (%esp)
	calll	_malloc
	movl	L_shadow.exception.class+4, %ecx
	movl	%ecx, 4(%eax)
	movl	L_shadow.exception.class, %ecx
	movl	%ecx, (%eax)
	movl	$L_shadow.exception.cleanup, 8(%eax)
	movl	8(%esp), %ecx
	movl	%ecx, 32(%eax)
	movl	%eax, (%esp)
	calll	__Unwind_RaiseException
	calll	_abort
	.cfi_endproc

	.def	 __Pshadow_Pstandard_CArray_MgetBaseClass;
	.scl	2;
	.type	32;
	.endef
	.globl	__Pshadow_Pstandard_CArray_MgetBaseClass
	.align	16, 0x90
__Pshadow_Pstandard_CArray_MgetBaseClass: # @_Pshadow_Pstandard_CArray_MgetBaseClass
	.cfi_startproc
# BB#0:
	pushl	%eax
Ltmp73:
	.cfi_def_cfa_offset 8
	movl	8(%esp), %eax
	movl	%eax, (%esp)
	movl	12(%eax), %eax
	popl	%edx
	ret
	.cfi_endproc

	.def	 __Pshadow_Pstandard_CArray_Mdims;
	.scl	2;
	.type	32;
	.endef
	.globl	__Pshadow_Pstandard_CArray_Mdims
	.align	16, 0x90
__Pshadow_Pstandard_CArray_Mdims:       # @_Pshadow_Pstandard_CArray_Mdims
	.cfi_startproc
# BB#0:
	pushl	%ebp
Ltmp79:
	.cfi_def_cfa_offset 8
	pushl	%ebx
Ltmp80:
	.cfi_def_cfa_offset 12
	pushl	%edi
Ltmp81:
	.cfi_def_cfa_offset 16
	pushl	%esi
Ltmp82:
	.cfi_def_cfa_offset 20
	subl	$24, %esp
Ltmp83:
	.cfi_def_cfa_offset 44
Ltmp84:
	.cfi_offset %esi, -20
Ltmp85:
	.cfi_offset %edi, -16
Ltmp86:
	.cfi_offset %ebx, -12
Ltmp87:
	.cfi_offset %ebp, -8
	movl	44(%esp), %eax
	movl	%eax, 20(%esp)
	movl	4(%eax), %edi
	movl	8(%eax), %ebx
	movl	$1, 4(%esp)
	movl	$__Pshadow_Pstandard_Cint_Mclass, (%esp)
	calll	__Pshadow_Pstandard_CClass_Mallocate_Pshadow_Pstandard_Cint
	movl	%eax, %esi
	movl	%ebx, (%esi)
	movl	$__Pshadow_Pstandard_CArray_Mclass, (%esp)
	calll	__Pshadow_Pstandard_CClass_Mallocate
	movl	%edi, 16(%esp)
	movl	%esi, 8(%esp)
	movl	%eax, (%esp)
	movl	$1, 12(%esp)
	movl	$__Pshadow_Pstandard_Cint_Mclass, 4(%esp)
	calll	__Pshadow_Pstandard_CArray_Mcreate_Pshadow_Pstandard_Cint_A1_Pshadow_Pstandard_CObject
	movl	(%eax), %eax
	movl	80(%eax), %ebp
	movl	$1, 4(%esp)
	movl	$__Pshadow_Pstandard_Cint_Mclass, (%esp)
	calll	__Pshadow_Pstandard_CClass_Mallocate_Pshadow_Pstandard_Cint
	movl	%eax, %esi
	movl	%ebx, (%esi)
	movl	$__Pshadow_Pstandard_CArray_Mclass, (%esp)
	calll	__Pshadow_Pstandard_CClass_Mallocate
	movl	%edi, 16(%esp)
	movl	%esi, 8(%esp)
	movl	%eax, (%esp)
	movl	$1, 12(%esp)
	movl	$__Pshadow_Pstandard_Cint_Mclass, 4(%esp)
	calll	__Pshadow_Pstandard_CArray_Mcreate_Pshadow_Pstandard_Cint_A1_Pshadow_Pstandard_CObject
	movl	%eax, (%esp)
	calll	*%ebp
	movl	(%eax), %eax
	addl	$24, %esp
	popl	%esi
	popl	%edi
	popl	%ebx
	popl	%ebp
	ret
	.cfi_endproc

	.def	 __Pshadow_Pstandard_CArray_Mlengths;
	.scl	2;
	.type	32;
	.endef
	.globl	__Pshadow_Pstandard_CArray_Mlengths
	.align	16, 0x90
__Pshadow_Pstandard_CArray_Mlengths:    # @_Pshadow_Pstandard_CArray_Mlengths
	.cfi_startproc
# BB#0:
	pushl	%eax
Ltmp89:
	.cfi_def_cfa_offset 8
	movl	8(%esp), %ecx
	movl	%ecx, (%esp)
	movl	4(%ecx), %eax
	movl	8(%ecx), %edx
	popl	%ecx
	ret
	.cfi_endproc

	.def	 __Pshadow_Pstandard_CArray_MtoString;
	.scl	2;
	.type	32;
	.endef
	.globl	__Pshadow_Pstandard_CArray_MtoString
	.align	16, 0x90
__Pshadow_Pstandard_CArray_MtoString:   # @_Pshadow_Pstandard_CArray_MtoString
	.cfi_startproc
# BB#0:
	pushl	%ebp
Ltmp93:
	.cfi_def_cfa_offset 8
Ltmp94:
	.cfi_offset %ebp, -8
	movl	%esp, %ebp
Ltmp95:
	.cfi_def_cfa_register %ebp
	pushl	%ebx
	pushl	%edi
	pushl	%esi
	andl	$-8, %esp
	subl	$64, %esp
Ltmp96:
	.cfi_offset %esi, -20
Ltmp97:
	.cfi_offset %edi, -16
Ltmp98:
	.cfi_offset %ebx, -12
	movl	8(%ebp), %eax
	movl	%eax, 56(%esp)
	movl	(%eax), %ecx
	movl	%eax, (%esp)
	calll	*84(%ecx)
	testl	%eax, %eax
	je	LBB19_1
# BB#3:                                 # %_label2
	movl	$__Pshadow_Pstandard_CMutableString_Mclass, (%esp)
	calll	__Pshadow_Pstandard_CClass_Mallocate
	movl	%eax, %esi
	movl	%esi, (%esp)
	movl	$L__string2, 4(%esp)
	calll	__Pshadow_Pstandard_CMutableString_Mcreate_Pshadow_Pstandard_CObject
	movl	%esi, 52(%esp)
	movl	56(%esp), %eax
	movl	(%eax), %ecx
	movl	%eax, (%esp)
	calll	*64(%ecx)
	movl	%eax, %esi
	movl	%esi, 4(%esp)
	movl	$__Pshadow_Pstandard_Cint_Mclass, (%esp)
	calll	__Pshadow_Pstandard_CClass_Mallocate_Pshadow_Pstandard_Cint
	movl	%esi, 44(%esp)
	movl	%eax, 40(%esp)
	movb	$1, 39(%esp)
	jmp	LBB19_12
	.align	16, 0x90
LBB19_4:                                # %_label3
                                        #   in Loop: Header=BB19_12 Depth=1
	cmpb	$1, 39(%esp)
	jne	LBB19_6
# BB#5:                                 # %_label6
                                        #   in Loop: Header=BB19_12 Depth=1
	movb	$0, 39(%esp)
	jmp	LBB19_7
	.align	16, 0x90
LBB19_6:                                # %_label7
                                        #   in Loop: Header=BB19_12 Depth=1
	movl	52(%esp), %ecx
	movl	(%ecx), %eax
	movl	%ecx, (%esp)
	movl	$L__string3, 4(%esp)
	calll	*60(%eax)
LBB19_7:                                # %_label8
                                        #   in Loop: Header=BB19_12 Depth=1
	movl	52(%esp), %eax
	movl	(%eax), %eax
	movl	60(%eax), %esi
	movl	56(%esp), %eax
	movl	(%eax), %ecx
	movl	40(%esp), %edx
	movl	44(%esp), %edi
	movl	%edi, 8(%esp)
	movl	%edx, 4(%esp)
	movl	%eax, (%esp)
	calll	*72(%ecx)
	movl	52(%esp), %ecx
	movl	%eax, 4(%esp)
	movl	%ecx, (%esp)
	calll	*%esi
	movl	40(%esp), %edi
	movl	44(%esp), %ebx
	movl	$1, 4(%esp)
	movl	$__Pshadow_Pstandard_Cint_Mclass, (%esp)
	calll	__Pshadow_Pstandard_CClass_Mallocate_Pshadow_Pstandard_Cint
	movl	%eax, %esi
	movl	%ebx, (%esi)
	movl	$__Pshadow_Pstandard_CArray_Mclass, (%esp)
	calll	__Pshadow_Pstandard_CClass_Mallocate
	movl	%edi, 16(%esp)
	movl	%esi, 8(%esp)
	movl	%eax, (%esp)
	movl	$1, 12(%esp)
	movl	$__Pshadow_Pstandard_Cint_Mclass, 4(%esp)
	calll	__Pshadow_Pstandard_CArray_Mcreate_Pshadow_Pstandard_Cint_A1_Pshadow_Pstandard_CObject
	movl	(%eax), %eax
	movl	84(%eax), %eax
	movl	%eax, 24(%esp)          # 4-byte Spill
	movl	$1, 4(%esp)
	movl	$__Pshadow_Pstandard_Cint_Mclass, (%esp)
	calll	__Pshadow_Pstandard_CClass_Mallocate_Pshadow_Pstandard_Cint
	movl	%eax, %esi
	movl	%ebx, (%esi)
	movl	$__Pshadow_Pstandard_CArray_Mclass, (%esp)
	calll	__Pshadow_Pstandard_CClass_Mallocate
	movl	%edi, 16(%esp)
	movl	%esi, 8(%esp)
	movl	%eax, (%esp)
	movl	$1, 12(%esp)
	movl	$__Pshadow_Pstandard_Cint_Mclass, 4(%esp)
	calll	__Pshadow_Pstandard_CArray_Mcreate_Pshadow_Pstandard_Cint_A1_Pshadow_Pstandard_CObject
	movl	%eax, (%esp)
	calll	*24(%esp)               # 4-byte Folded Reload
	jmp	LBB19_9
	.align	16, 0x90
LBB19_8:                                # %_label9
                                        #   in Loop: Header=BB19_9 Depth=2
	movl	40(%esp), %eax
	movl	32(%esp), %ecx
	movl	$0, (%eax,%ecx,4)
	movl	32(%esp), %eax
LBB19_9:                                # %_label9
                                        #   Parent Loop BB19_12 Depth=1
                                        # =>  This Inner Loop Header: Depth=2
	leal	-1(%eax), %ecx
	movl	%ecx, 32(%esp)
	movl	40(%esp), %ecx
	incl	-4(%ecx,%eax,4)
	cmpl	$0, 32(%esp)
	setg	31(%esp)
	jle	LBB19_11
# BB#10:                                # %_label13
                                        #   in Loop: Header=BB19_9 Depth=2
	movl	56(%esp), %eax
	movl	(%eax), %ecx
	movl	40(%esp), %esi
	movl	32(%esp), %edi
	movl	%eax, (%esp)
	calll	*80(%ecx)
	movl	(%esi,%edi,4), %ecx
	movl	32(%esp), %edx
	cmpl	(%eax,%edx,4), %ecx
	sete	31(%esp)
LBB19_11:                               # %_label12
                                        #   in Loop: Header=BB19_9 Depth=2
	movb	31(%esp), %al
	testb	%al, %al
	jne	LBB19_8
LBB19_12:                               # %_label4
                                        # =>This Loop Header: Depth=1
                                        #     Child Loop BB19_9 Depth 2
	movl	56(%esp), %eax
	movl	(%eax), %ecx
	movl	40(%esp), %esi
	movl	%eax, (%esp)
	calll	*80(%ecx)
	movl	(%esi), %ecx
	cmpl	(%eax), %ecx
	jne	LBB19_4
# BB#13:                                # %_label5
	movl	52(%esp), %ecx
	movl	(%ecx), %eax
	movl	%ecx, (%esp)
	movl	$L__string4, 4(%esp)
	calll	*60(%eax)
	movl	(%eax), %ecx
	movl	%eax, (%esp)
	calll	*56(%ecx)
	jmp	LBB19_2
LBB19_1:                                # %_label0
	movl	$L__string1, %eax
LBB19_2:                                # %_label0
	leal	-12(%ebp), %esp
	popl	%esi
	popl	%edi
	popl	%ebx
	popl	%ebp
	ret
	.cfi_endproc

	.def	 __Pshadow_Pstandard_CArray_Mcreate_Pshadow_Pstandard_Cint_A1_Pshadow_Pstandard_CObject;
	.scl	2;
	.type	32;
	.endef
	.globl	__Pshadow_Pstandard_CArray_Mcreate_Pshadow_Pstandard_Cint_A1_Pshadow_Pstandard_CObject
	.align	16, 0x90
__Pshadow_Pstandard_CArray_Mcreate_Pshadow_Pstandard_Cint_A1_Pshadow_Pstandard_CObject: # @_Pshadow_Pstandard_CArray_Mcreate_Pshadow_Pstandard_Cint_A1_Pshadow_Pstandard_CObject
	.cfi_startproc
# BB#0:
	pushl	%ebp
Ltmp102:
	.cfi_def_cfa_offset 8
Ltmp103:
	.cfi_offset %ebp, -8
	movl	%esp, %ebp
Ltmp104:
	.cfi_def_cfa_register %ebp
	pushl	%edi
	pushl	%esi
	andl	$-8, %esp
	subl	$32, %esp
Ltmp105:
	.cfi_offset %esi, -16
Ltmp106:
	.cfi_offset %edi, -12
	movl	8(%ebp), %esi
	movl	%esi, 28(%esp)
	movl	12(%ebp), %eax
	movl	%eax, 24(%esp)
	movl	20(%ebp), %eax
	movl	%eax, 20(%esp)
	movl	16(%ebp), %eax
	movl	%eax, 16(%esp)
	movl	24(%ebp), %eax
	movl	%eax, 12(%esp)
	movl	28(%esp), %eax
	movl	%eax, (%esp)
	calll	__Pshadow_Pstandard_CObject_Mcreate
	movl	$__Pshadow_Pstandard_CArray_Mclass, (%esi)
	movl	24(%esp), %eax
	movl	28(%esp), %ecx
	movl	%eax, 12(%ecx)
	movl	28(%esp), %eax
	movl	$0, 16(%eax)
	movl	28(%esp), %edi
	movl	$0, 4(%esp)
	movl	$__Pshadow_Pstandard_Cint_Mclass, (%esp)
	calll	__Pshadow_Pstandard_CClass_Mallocate_Pshadow_Pstandard_Cint
	movl	%eax, 4(%edi)
	movl	$0, 8(%edi)
	movl	16(%esp), %eax
	movl	20(%esp), %ecx
	movl	28(%esp), %edx
	movl	%ecx, 8(%edx)
	movl	%eax, 4(%edx)
	movl	12(%esp), %eax
	movl	28(%esp), %ecx
	movl	%eax, 16(%ecx)
	movl	%esi, %eax
	leal	-8(%ebp), %esp
	popl	%esi
	popl	%edi
	popl	%ebp
	ret
	.cfi_endproc

	.def	 __Pshadow_Pstandard_CArray_Mcreate_Pshadow_Pstandard_Cint_A1;
	.scl	2;
	.type	32;
	.endef
	.globl	__Pshadow_Pstandard_CArray_Mcreate_Pshadow_Pstandard_Cint_A1
	.align	16, 0x90
__Pshadow_Pstandard_CArray_Mcreate_Pshadow_Pstandard_Cint_A1: # @_Pshadow_Pstandard_CArray_Mcreate_Pshadow_Pstandard_Cint_A1
	.cfi_startproc
# BB#0:
	pushl	%ebp
Ltmp110:
	.cfi_def_cfa_offset 8
Ltmp111:
	.cfi_offset %ebp, -8
	movl	%esp, %ebp
Ltmp112:
	.cfi_def_cfa_register %ebp
	pushl	%ebx
	pushl	%edi
	pushl	%esi
	andl	$-8, %esp
	subl	$48, %esp
Ltmp113:
	.cfi_offset %esi, -20
Ltmp114:
	.cfi_offset %edi, -16
Ltmp115:
	.cfi_offset %ebx, -12
	movl	8(%ebp), %eax
	movl	%eax, 40(%esp)
	movl	%eax, %esi
	movl	12(%ebp), %eax
	movl	%eax, 36(%esp)
	movl	20(%ebp), %eax
	movl	%eax, 28(%esp)
	movl	16(%ebp), %eax
	movl	%eax, 24(%esp)
	movl	40(%esp), %eax
	movl	%eax, (%esp)
	calll	__Pshadow_Pstandard_CObject_Mcreate
	movl	$__Pshadow_Pstandard_CArray_Mclass, (%esi)
	movl	36(%esp), %eax
	movl	40(%esp), %ecx
	movl	%eax, 12(%ecx)
	movl	40(%esp), %eax
	movl	$0, 16(%eax)
	movl	40(%esp), %esi
	movl	$0, 4(%esp)
	movl	$__Pshadow_Pstandard_Cint_Mclass, (%esp)
	calll	__Pshadow_Pstandard_CClass_Mallocate_Pshadow_Pstandard_Cint
	movl	%eax, 4(%esi)
	movl	$0, 8(%esi)
	movl	24(%esp), %ebx
	movl	28(%esp), %esi
	movl	$1, 4(%esp)
	movl	$__Pshadow_Pstandard_Cint_Mclass, (%esp)
	calll	__Pshadow_Pstandard_CClass_Mallocate_Pshadow_Pstandard_Cint
	movl	%eax, %edi
	movl	%esi, (%edi)
	movl	$__Pshadow_Pstandard_CArray_Mclass, (%esp)
	calll	__Pshadow_Pstandard_CClass_Mallocate
	movl	%ebx, 16(%esp)
	movl	%edi, 8(%esp)
	movl	%eax, (%esp)
	movl	$1, 12(%esp)
	movl	$__Pshadow_Pstandard_Cint_Mclass, 4(%esp)
	calll	__Pshadow_Pstandard_CArray_Mcreate_Pshadow_Pstandard_Cint_A1_Pshadow_Pstandard_CObject
	movl	(%eax), %eax
	movl	36(%eax), %eax
	movl	%eax, 20(%esp)          # 4-byte Spill
	movl	24(%esp), %esi
	movl	28(%esp), %ebx
	movl	$1, 4(%esp)
	movl	$__Pshadow_Pstandard_Cint_Mclass, (%esp)
	calll	__Pshadow_Pstandard_CClass_Mallocate_Pshadow_Pstandard_Cint
	movl	%eax, %edi
	movl	%ebx, (%edi)
	movl	$__Pshadow_Pstandard_CArray_Mclass, (%esp)
	calll	__Pshadow_Pstandard_CClass_Mallocate
	movl	%esi, 16(%esp)
	movl	%edi, 8(%esp)
	movl	%eax, (%esp)
	movl	$1, 12(%esp)
	movl	$__Pshadow_Pstandard_Cint_Mclass, 4(%esp)
	calll	__Pshadow_Pstandard_CArray_Mcreate_Pshadow_Pstandard_Cint_A1_Pshadow_Pstandard_CObject
	movl	%eax, (%esp)
	calll	*20(%esp)               # 4-byte Folded Reload
	movl	4(%eax), %ecx
	movl	16(%eax), %eax
	movl	(%ecx), %ecx
	movl	40(%esp), %edx
	movl	%ecx, 8(%edx)
	movl	%eax, 4(%edx)
	movl	40(%esp), %esi
	movl	(%esi), %eax
	movl	12(%esi), %edi
	movl	%esi, (%esp)
	calll	*84(%eax)
	movl	%eax, 8(%esp)
	movl	%edi, 4(%esp)
	movl	%esi, (%esp)
	calll	__Pshadow_Pstandard_CArray_Mallocate_Pshadow_Pstandard_CClass_Pshadow_Pstandard_Cint
	movl	40(%esp), %ecx
	movl	%eax, 16(%ecx)
	movl	8(%ebp), %eax
	leal	-12(%ebp), %esp
	popl	%esi
	popl	%edi
	popl	%ebx
	popl	%ebp
	ret
	.cfi_endproc

	.def	 __Pshadow_Pstandard_CArray_Mcopy;
	.scl	2;
	.type	32;
	.endef
	.globl	__Pshadow_Pstandard_CArray_Mcopy
	.align	16, 0x90
__Pshadow_Pstandard_CArray_Mcopy:       # @_Pshadow_Pstandard_CArray_Mcopy
	.cfi_startproc
# BB#0:
	pushl	%ebp
Ltmp119:
	.cfi_def_cfa_offset 8
Ltmp120:
	.cfi_offset %ebp, -8
	movl	%esp, %ebp
Ltmp121:
	.cfi_def_cfa_register %ebp
	pushl	%ebx
	pushl	%edi
	pushl	%esi
	andl	$-8, %esp
	subl	$56, %esp
Ltmp122:
	.cfi_offset %esi, -20
Ltmp123:
	.cfi_offset %edi, -16
Ltmp124:
	.cfi_offset %ebx, -12
	movl	8(%ebp), %eax
	movl	%eax, 48(%esp)
	movl	$__Pshadow_Pstandard_CArray_Mclass, (%esp)
	calll	__Pshadow_Pstandard_CClass_Mallocate
	movl	%eax, 20(%esp)          # 4-byte Spill
	movl	48(%esp), %ebx
	movl	(%ebx), %eax
	movl	12(%ebx), %esi
	movl	%ebx, (%esp)
	calll	*84(%eax)
	movl	%eax, 8(%esp)
	movl	%esi, 4(%esp)
	movl	%ebx, (%esp)
	calll	__Pshadow_Pstandard_CArray_Mallocate_Pshadow_Pstandard_CClass_Pshadow_Pstandard_Cint
	movl	%eax, %edi
	movl	(%ebx), %eax
	movl	12(%ebx), %esi
	movl	%ebx, (%esp)
	calll	*80(%eax)
	movl	%edi, 16(%esp)
	movl	%edx, 12(%esp)
	movl	%eax, 8(%esp)
	movl	%esi, 4(%esp)
	movl	20(%esp), %esi          # 4-byte Reload
	movl	%esi, (%esp)
	calll	__Pshadow_Pstandard_CArray_Mcreate_Pshadow_Pstandard_Cint_A1_Pshadow_Pstandard_CObject
	movl	%esi, 44(%esp)
	movl	48(%esp), %eax
	movl	(%eax), %ecx
	movl	%eax, (%esp)
	calll	*64(%ecx)
	movl	%eax, %esi
	movl	%esi, 4(%esp)
	movl	$__Pshadow_Pstandard_Cint_Mclass, (%esp)
	calll	__Pshadow_Pstandard_CClass_Mallocate_Pshadow_Pstandard_Cint
	movl	%esi, 36(%esp)
	movl	%eax, 32(%esp)
	jmp	LBB22_6
	.align	16, 0x90
LBB22_1:                                # %_label14
                                        #   in Loop: Header=BB22_6 Depth=1
	movl	44(%esp), %eax
	movl	(%eax), %eax
	movl	76(%eax), %esi
	movl	48(%esp), %eax
	movl	(%eax), %ecx
	movl	32(%esp), %edx
	movl	36(%esp), %edi
	movl	%edi, 8(%esp)
	movl	%edx, 4(%esp)
	movl	%eax, (%esp)
	calll	*72(%ecx)
	movl	44(%esp), %ecx
	movl	32(%esp), %edx
	movl	36(%esp), %edi
	movl	%eax, 12(%esp)
	movl	%edi, 8(%esp)
	movl	%edx, 4(%esp)
	movl	%ecx, (%esp)
	calll	*%esi
	movl	32(%esp), %edi
	movl	36(%esp), %ebx
	movl	$1, 4(%esp)
	movl	$__Pshadow_Pstandard_Cint_Mclass, (%esp)
	calll	__Pshadow_Pstandard_CClass_Mallocate_Pshadow_Pstandard_Cint
	movl	%eax, %esi
	movl	%ebx, (%esi)
	movl	$__Pshadow_Pstandard_CArray_Mclass, (%esp)
	calll	__Pshadow_Pstandard_CClass_Mallocate
	movl	%edi, 16(%esp)
	movl	%esi, 8(%esp)
	movl	%eax, (%esp)
	movl	$1, 12(%esp)
	movl	$__Pshadow_Pstandard_Cint_Mclass, 4(%esp)
	calll	__Pshadow_Pstandard_CArray_Mcreate_Pshadow_Pstandard_Cint_A1_Pshadow_Pstandard_CObject
	movl	(%eax), %eax
	movl	84(%eax), %eax
	movl	%eax, 20(%esp)          # 4-byte Spill
	movl	$1, 4(%esp)
	movl	$__Pshadow_Pstandard_Cint_Mclass, (%esp)
	calll	__Pshadow_Pstandard_CClass_Mallocate_Pshadow_Pstandard_Cint
	movl	%eax, %esi
	movl	%ebx, (%esi)
	movl	$__Pshadow_Pstandard_CArray_Mclass, (%esp)
	calll	__Pshadow_Pstandard_CClass_Mallocate
	movl	%edi, 16(%esp)
	movl	%esi, 8(%esp)
	movl	%eax, (%esp)
	movl	$1, 12(%esp)
	movl	$__Pshadow_Pstandard_Cint_Mclass, 4(%esp)
	calll	__Pshadow_Pstandard_CArray_Mcreate_Pshadow_Pstandard_Cint_A1_Pshadow_Pstandard_CObject
	movl	%eax, (%esp)
	calll	*20(%esp)               # 4-byte Folded Reload
	jmp	LBB22_3
	.align	16, 0x90
LBB22_2:                                # %_label17
                                        #   in Loop: Header=BB22_3 Depth=2
	movl	32(%esp), %eax
	movl	28(%esp), %ecx
	movl	$0, (%eax,%ecx,4)
	movl	28(%esp), %eax
LBB22_3:                                # %_label17
                                        #   Parent Loop BB22_6 Depth=1
                                        # =>  This Inner Loop Header: Depth=2
	leal	-1(%eax), %ecx
	movl	%ecx, 28(%esp)
	movl	32(%esp), %ecx
	incl	-4(%ecx,%eax,4)
	cmpl	$0, 28(%esp)
	setg	27(%esp)
	jle	LBB22_5
# BB#4:                                 # %_label21
                                        #   in Loop: Header=BB22_3 Depth=2
	movl	48(%esp), %eax
	movl	(%eax), %ecx
	movl	32(%esp), %esi
	movl	28(%esp), %edi
	movl	%eax, (%esp)
	calll	*80(%ecx)
	movl	(%esi,%edi,4), %ecx
	movl	28(%esp), %edx
	cmpl	(%eax,%edx,4), %ecx
	sete	27(%esp)
LBB22_5:                                # %_label20
                                        #   in Loop: Header=BB22_3 Depth=2
	movb	27(%esp), %al
	testb	%al, %al
	jne	LBB22_2
LBB22_6:                                # %_label15
                                        # =>This Loop Header: Depth=1
                                        #     Child Loop BB22_3 Depth 2
	movl	48(%esp), %eax
	movl	(%eax), %ecx
	movl	32(%esp), %esi
	movl	%eax, (%esp)
	calll	*80(%ecx)
	movl	(%esi), %ecx
	cmpl	(%eax), %ecx
	jne	LBB22_1
# BB#7:                                 # %_label16
	movl	44(%esp), %eax
	leal	-12(%ebp), %esp
	popl	%esi
	popl	%edi
	popl	%ebx
	popl	%ebp
	ret
	.cfi_endproc

	.def	 __Pshadow_Pstandard_CArray_Msize;
	.scl	2;
	.type	32;
	.endef
	.globl	__Pshadow_Pstandard_CArray_Msize
	.align	16, 0x90
__Pshadow_Pstandard_CArray_Msize:       # @_Pshadow_Pstandard_CArray_Msize
	.cfi_startproc
# BB#0:
	pushl	%ebp
Ltmp130:
	.cfi_def_cfa_offset 8
	pushl	%ebx
Ltmp131:
	.cfi_def_cfa_offset 12
	pushl	%edi
Ltmp132:
	.cfi_def_cfa_offset 16
	pushl	%esi
Ltmp133:
	.cfi_def_cfa_offset 20
	subl	$32, %esp
Ltmp134:
	.cfi_def_cfa_offset 52
Ltmp135:
	.cfi_offset %esi, -20
Ltmp136:
	.cfi_offset %edi, -16
Ltmp137:
	.cfi_offset %ebx, -12
Ltmp138:
	.cfi_offset %ebp, -8
	movl	52(%esp), %eax
	movl	%eax, 28(%esp)
	movl	4(%eax), %eax
	movl	(%eax), %eax
	movl	%eax, 24(%esp)
	movl	$1, 20(%esp)
	jmp	LBB23_2
	.align	16, 0x90
LBB23_1:                                # %_label22
                                        #   in Loop: Header=BB23_2 Depth=1
	movl	28(%esp), %eax
	movl	4(%eax), %eax
	movl	20(%esp), %ecx
	movl	24(%esp), %edx
	imull	(%eax,%ecx,4), %edx
	movl	%edx, 24(%esp)
	incl	20(%esp)
LBB23_2:                                # %_label23
                                        # =>This Inner Loop Header: Depth=1
	movl	28(%esp), %eax
	movl	4(%eax), %edi
	movl	8(%eax), %ebx
	movl	$1, 4(%esp)
	movl	$__Pshadow_Pstandard_Cint_Mclass, (%esp)
	calll	__Pshadow_Pstandard_CClass_Mallocate_Pshadow_Pstandard_Cint
	movl	%eax, %esi
	movl	%ebx, (%esi)
	movl	$__Pshadow_Pstandard_CArray_Mclass, (%esp)
	calll	__Pshadow_Pstandard_CClass_Mallocate
	movl	%edi, 16(%esp)
	movl	%esi, 8(%esp)
	movl	%eax, (%esp)
	movl	$1, 12(%esp)
	movl	$__Pshadow_Pstandard_Cint_Mclass, 4(%esp)
	calll	__Pshadow_Pstandard_CArray_Mcreate_Pshadow_Pstandard_Cint_A1_Pshadow_Pstandard_CObject
	movl	(%eax), %eax
	movl	80(%eax), %ebp
	movl	$1, 4(%esp)
	movl	$__Pshadow_Pstandard_Cint_Mclass, (%esp)
	calll	__Pshadow_Pstandard_CClass_Mallocate_Pshadow_Pstandard_Cint
	movl	%eax, %esi
	movl	%ebx, (%esi)
	movl	$__Pshadow_Pstandard_CArray_Mclass, (%esp)
	calll	__Pshadow_Pstandard_CClass_Mallocate
	movl	%edi, 16(%esp)
	movl	%esi, 8(%esp)
	movl	%eax, (%esp)
	movl	$1, 12(%esp)
	movl	$__Pshadow_Pstandard_Cint_Mclass, 4(%esp)
	calll	__Pshadow_Pstandard_CArray_Mcreate_Pshadow_Pstandard_Cint_A1_Pshadow_Pstandard_CObject
	movl	%eax, (%esp)
	calll	*%ebp
	movl	20(%esp), %ecx
	cmpl	(%eax), %ecx
	jl	LBB23_1
# BB#3:                                 # %_label24
	movl	24(%esp), %eax
	addl	$32, %esp
	popl	%esi
	popl	%edi
	popl	%ebx
	popl	%ebp
	ret
	.cfi_endproc

	.def	 __Pshadow_Pstandard_CArray_Mallocate_Pshadow_Pstandard_CClass_Pshadow_Pstandard_Cint;
	.scl	2;
	.type	32;
	.endef
	.globl	__Pshadow_Pstandard_CArray_Mallocate_Pshadow_Pstandard_CClass_Pshadow_Pstandard_Cint
	.align	16, 0x90
__Pshadow_Pstandard_CArray_Mallocate_Pshadow_Pstandard_CClass_Pshadow_Pstandard_Cint: # @_Pshadow_Pstandard_CArray_Mallocate_Pshadow_Pstandard_CClass_Pshadow_Pstandard_Cint
	.cfi_startproc
# BB#0:
	subl	$8, %esp
Ltmp140:
	.cfi_def_cfa_offset 12
	movl	20(%esp), %eax
	movl	%eax, 4(%esp)
	movl	16(%esp), %eax
	movl	%eax, (%esp)
	calll	__Pshadow_Pstandard_CClass_Mallocate_Pshadow_Pstandard_Cint
	addl	$8, %esp
	ret
	.cfi_endproc

	.def	 __Pshadow_Pstandard_CArray_Mindex_Pshadow_Pstandard_Cint_A1;
	.scl	2;
	.type	32;
	.endef
	.globl	__Pshadow_Pstandard_CArray_Mindex_Pshadow_Pstandard_Cint_A1
	.align	16, 0x90
__Pshadow_Pstandard_CArray_Mindex_Pshadow_Pstandard_Cint_A1: # @_Pshadow_Pstandard_CArray_Mindex_Pshadow_Pstandard_Cint_A1
	.cfi_startproc
# BB#0:
	pushl	%ebx
Ltmp145:
	.cfi_def_cfa_offset 8
	pushl	%edi
Ltmp146:
	.cfi_def_cfa_offset 12
	pushl	%esi
Ltmp147:
	.cfi_def_cfa_offset 16
	subl	$12, %esp
Ltmp148:
	.cfi_def_cfa_offset 28
Ltmp149:
	.cfi_offset %esi, -16
Ltmp150:
	.cfi_offset %edi, -12
Ltmp151:
	.cfi_offset %ebx, -8
	calll	_abort
	movl	28(%esp), %ecx
	movl	12(%ecx), %eax
	movl	32(%eax), %ebx
	movl	32(%esp), %edi
	imull	%ebx, %edi
	addl	16(%ecx), %edi
	btl	$1, 24(%eax)
	jae	LBB25_1
# BB#3:
	movl	%eax, (%esp)
	calll	__Pshadow_Pstandard_CClass_Mallocate
	movl	%eax, %esi
	movl	%ebx, 8(%esp)
	movl	%edi, 4(%esp)
	leal	4(%esi), %eax
	movl	%eax, (%esp)
	calll	_memcpy
	movl	%esi, %eax
	jmp	LBB25_2
LBB25_1:
	movl	(%edi), %eax
LBB25_2:
	addl	$12, %esp
	popl	%esi
	popl	%edi
	popl	%ebx
	ret
	.cfi_endproc

	.def	 __Pshadow_Pstandard_CArray_Mindex_Pshadow_Pstandard_Cint_A1_CT;
	.scl	2;
	.type	32;
	.endef
	.globl	__Pshadow_Pstandard_CArray_Mindex_Pshadow_Pstandard_Cint_A1_CT
	.align	16, 0x90
__Pshadow_Pstandard_CArray_Mindex_Pshadow_Pstandard_Cint_A1_CT: # @_Pshadow_Pstandard_CArray_Mindex_Pshadow_Pstandard_Cint_A1_CT
	.cfi_startproc
# BB#0:
	pushl	%esi
Ltmp154:
	.cfi_def_cfa_offset 8
	subl	$12, %esp
Ltmp155:
	.cfi_def_cfa_offset 20
Ltmp156:
	.cfi_offset %esi, -8
	calll	_abort
	movl	20(%esp), %edx
	movl	12(%edx), %esi
	movl	32(%esi), %ecx
	movl	24(%esp), %eax
	imull	%ecx, %eax
	addl	16(%edx), %eax
	movl	28(%esp), %edx
	btl	$1, 24(%esi)
	jae	LBB26_1
# BB#3:
	movl	%ecx, 8(%esp)
	addl	$4, %edx
	movl	%edx, 4(%esp)
	movl	%eax, (%esp)
	calll	_memcpy
	jmp	LBB26_2
LBB26_1:
	movl	%edx, (%eax)
LBB26_2:
	addl	$12, %esp
	popl	%esi
	ret
	.cfi_endproc

	.def	 __Pshadow_Pstandard_CArray_Msubarray_Pshadow_Pstandard_Cint_Pshadow_Pstandard_Cint;
	.scl	2;
	.type	32;
	.endef
	.globl	__Pshadow_Pstandard_CArray_Msubarray_Pshadow_Pstandard_Cint_Pshadow_Pstandard_Cint
	.align	16, 0x90
__Pshadow_Pstandard_CArray_Msubarray_Pshadow_Pstandard_Cint_Pshadow_Pstandard_Cint: # @_Pshadow_Pstandard_CArray_Msubarray_Pshadow_Pstandard_Cint_Pshadow_Pstandard_Cint
	.cfi_startproc
# BB#0:
	pushl	%ebp
Ltmp162:
	.cfi_def_cfa_offset 8
	pushl	%ebx
Ltmp163:
	.cfi_def_cfa_offset 12
	pushl	%edi
Ltmp164:
	.cfi_def_cfa_offset 16
	pushl	%esi
Ltmp165:
	.cfi_def_cfa_offset 20
	subl	$28, %esp
Ltmp166:
	.cfi_def_cfa_offset 48
Ltmp167:
	.cfi_offset %esi, -20
Ltmp168:
	.cfi_offset %edi, -16
Ltmp169:
	.cfi_offset %ebx, -12
Ltmp170:
	.cfi_offset %ebp, -8
	movl	$__Pshadow_Pstandard_CArray_Mclass, (%esp)
	calll	__Pshadow_Pstandard_CClass_Mallocate
	movl	%eax, 24(%esp)          # 4-byte Spill
	movl	48(%esp), %eax
	movl	8(%eax), %ebp
	movl	12(%eax), %ecx
	movl	%ecx, 20(%esp)          # 4-byte Spill
	movl	%ebp, 4(%esp)
	movl	$__Pshadow_Pstandard_Cint_Mclass, (%esp)
	movl	52(%esp), %esi
	movl	56(%esp), %ebx
	subl	%esi, %ebx
	calll	__Pshadow_Pstandard_CClass_Mallocate_Pshadow_Pstandard_Cint
	movl	%eax, %edi
	movl	%ebx, (%edi)
	movl	48(%esp), %ebx
	movl	4(%ebx), %eax
	leal	-1(%ebp), %ecx
	movl	%ecx, 8(%esp)
	addl	$4, %eax
	movl	%eax, 4(%esp)
	leal	4(%edi), %eax
	movl	%eax, (%esp)
	calll	_memcpy
	movl	20(%esp), %eax          # 4-byte Reload
	imull	32(%eax), %esi
	addl	16(%ebx), %esi
	movl	%esi, 16(%esp)
	movl	%ebp, 12(%esp)
	movl	%edi, 8(%esp)
	movl	%eax, 4(%esp)
	movl	24(%esp), %eax          # 4-byte Reload
	movl	%eax, (%esp)
	calll	__Pshadow_Pstandard_CArray_Mcreate_Pshadow_Pstandard_Cint_A1_Pshadow_Pstandard_CObject
	addl	$28, %esp
	popl	%esi
	popl	%edi
	popl	%ebx
	popl	%ebp
	ret
	.cfi_endproc

	.def	 __Pshadow_Pstandard_CClass_MisSubtype_Pshadow_Pstandard_CClass;
	.scl	2;
	.type	32;
	.endef
	.globl	__Pshadow_Pstandard_CClass_MisSubtype_Pshadow_Pstandard_CClass
	.align	16, 0x90
__Pshadow_Pstandard_CClass_MisSubtype_Pshadow_Pstandard_CClass: # @_Pshadow_Pstandard_CClass_MisSubtype_Pshadow_Pstandard_CClass
	.cfi_startproc
# BB#0:
	pushl	%ebp
Ltmp176:
	.cfi_def_cfa_offset 8
	pushl	%ebx
Ltmp177:
	.cfi_def_cfa_offset 12
	pushl	%edi
Ltmp178:
	.cfi_def_cfa_offset 16
	pushl	%esi
Ltmp179:
	.cfi_def_cfa_offset 20
	subl	$40, %esp
Ltmp180:
	.cfi_def_cfa_offset 60
Ltmp181:
	.cfi_offset %esi, -20
Ltmp182:
	.cfi_offset %edi, -16
Ltmp183:
	.cfi_offset %ebx, -12
Ltmp184:
	.cfi_offset %ebp, -8
	movl	60(%esp), %eax
	movl	%eax, 36(%esp)
	movl	64(%esp), %eax
	movl	%eax, 32(%esp)
	cmpl	$0, 36(%esp)
	je	LBB28_1
# BB#2:                                 # %_label4
	movl	36(%esp), %eax
	movl	(%eax), %ecx
	movl	32(%esp), %edx
	movl	%edx, 4(%esp)
	movl	%eax, (%esp)
	calll	*44(%ecx)
	andb	$1, %al
	movb	%al, 31(%esp)
	jmp	LBB28_3
LBB28_1:                                # %_label3
	cmpl	$0, 32(%esp)
	sete	31(%esp)
LBB28_3:                                # %_label5
	cmpb	$1, 31(%esp)
	je	LBB28_4
# BB#6:                                 # %_label2
	movl	32(%esp), %eax
	movl	%eax, (%esp)
	calll	__Pshadow_Pstandard_CClass_MisInterface
	notb	%al
	testb	$1, %al
	je	LBB28_9
# BB#7:                                 # %_label6
	movl	36(%esp), %eax
	cmpl	$0, 20(%eax)
	je	LBB28_14
# BB#8:                                 # %_label11
	movl	20(%eax), %eax
	movl	32(%esp), %ecx
	movl	%ecx, 4(%esp)
	movl	%eax, (%esp)
	calll	__Pshadow_Pstandard_CClass_MisSubtype_Pshadow_Pstandard_CClass
	jmp	LBB28_5
LBB28_9:                                # %_label7
	movl	$0, 24(%esp)
	jmp	LBB28_13
	.align	16, 0x90
LBB28_12:                               # %_label15
                                        #   in Loop: Header=BB28_13 Depth=1
	incl	24(%esp)
LBB28_13:                               # %_label13
                                        # =>This Inner Loop Header: Depth=1
	movl	36(%esp), %eax
	movl	4(%eax), %ebx
	movl	8(%eax), %ebp
	movl	24(%esp), %eax
	movl	%eax, 20(%esp)          # 4-byte Spill
	movl	$1, 4(%esp)
	movl	$__Pshadow_Pstandard_Cint_Mclass, (%esp)
	calll	__Pshadow_Pstandard_CClass_Mallocate_Pshadow_Pstandard_Cint
	movl	%eax, %esi
	movl	%ebp, (%esi)
	movl	$__Pshadow_Pstandard_CArray_Mclass, (%esp)
	calll	__Pshadow_Pstandard_CClass_Mallocate
	movl	%ebx, 16(%esp)
	movl	%esi, 8(%esp)
	movl	%eax, (%esp)
	movl	$1, 12(%esp)
	movl	$__Pshadow_Pstandard_CClass_Mclass, 4(%esp)
	calll	__Pshadow_Pstandard_CArray_Mcreate_Pshadow_Pstandard_Cint_A1_Pshadow_Pstandard_CObject
	movl	(%eax), %eax
	movl	84(%eax), %edi
	movl	$1, 4(%esp)
	movl	$__Pshadow_Pstandard_Cint_Mclass, (%esp)
	calll	__Pshadow_Pstandard_CClass_Mallocate_Pshadow_Pstandard_Cint
	movl	%eax, %esi
	movl	%ebp, (%esi)
	movl	$__Pshadow_Pstandard_CArray_Mclass, (%esp)
	calll	__Pshadow_Pstandard_CClass_Mallocate
	movl	%ebx, 16(%esp)
	movl	%esi, 8(%esp)
	movl	%eax, (%esp)
	movl	$1, 12(%esp)
	movl	$__Pshadow_Pstandard_CClass_Mclass, 4(%esp)
	calll	__Pshadow_Pstandard_CArray_Mcreate_Pshadow_Pstandard_Cint_A1_Pshadow_Pstandard_CObject
	movl	%eax, (%esp)
	calll	*%edi
	cmpl	%eax, 20(%esp)          # 4-byte Folded Reload
	jge	LBB28_14
# BB#10:                                # %_label12
                                        #   in Loop: Header=BB28_13 Depth=1
	movl	36(%esp), %eax
	movl	4(%eax), %eax
	movl	24(%esp), %ecx
	cmpl	$0, (%eax,%ecx,4)
	je	LBB28_12
# BB#11:                                # %_label20
                                        #   in Loop: Header=BB28_13 Depth=1
	movl	(%eax,%ecx,4), %eax
	movl	32(%esp), %ecx
	movl	%ecx, 4(%esp)
	movl	%eax, (%esp)
	calll	__Pshadow_Pstandard_CClass_MisSubtype_Pshadow_Pstandard_CClass
	testb	$1, %al
	je	LBB28_12
LBB28_4:                                # %_label0
	movb	$1, %al
	jmp	LBB28_5
LBB28_14:                               # %_label8
	xorb	%al, %al
LBB28_5:                                # %_label0
	addl	$40, %esp
	popl	%esi
	popl	%edi
	popl	%ebx
	popl	%ebp
	ret
	.cfi_endproc

	.def	 __Pshadow_Pstandard_CClass_MisInterface;
	.scl	2;
	.type	32;
	.endef
	.globl	__Pshadow_Pstandard_CClass_MisInterface
	.align	16, 0x90
__Pshadow_Pstandard_CClass_MisInterface: # @_Pshadow_Pstandard_CClass_MisInterface
	.cfi_startproc
# BB#0:
	pushl	%eax
Ltmp186:
	.cfi_def_cfa_offset 8
	movl	8(%esp), %eax
	movl	%eax, (%esp)
	movb	24(%eax), %al
	andb	$1, %al
	popl	%edx
	ret
	.cfi_endproc

	.def	 __Pshadow_Pstandard_CClass_MisPrimitive;
	.scl	2;
	.type	32;
	.endef
	.globl	__Pshadow_Pstandard_CClass_MisPrimitive
	.align	16, 0x90
__Pshadow_Pstandard_CClass_MisPrimitive: # @_Pshadow_Pstandard_CClass_MisPrimitive
	.cfi_startproc
# BB#0:
	pushl	%eax
Ltmp188:
	.cfi_def_cfa_offset 8
	movl	8(%esp), %eax
	movl	%eax, (%esp)
	movb	24(%eax), %al
	andb	$2, %al
	shrb	%al
	popl	%edx
	ret
	.cfi_endproc

	.def	 __Pshadow_Pstandard_CClass_Mparent;
	.scl	2;
	.type	32;
	.endef
	.globl	__Pshadow_Pstandard_CClass_Mparent
	.align	16, 0x90
__Pshadow_Pstandard_CClass_Mparent:     # @_Pshadow_Pstandard_CClass_Mparent
	.cfi_startproc
# BB#0:
	pushl	%eax
Ltmp190:
	.cfi_def_cfa_offset 8
	movl	8(%esp), %eax
	movl	%eax, (%esp)
	movl	20(%eax), %eax
	popl	%edx
	ret
	.cfi_endproc

	.def	 __Pshadow_Pstandard_CClass_MtoString;
	.scl	2;
	.type	32;
	.endef
	.globl	__Pshadow_Pstandard_CClass_MtoString
	.align	16, 0x90
__Pshadow_Pstandard_CClass_MtoString:   # @_Pshadow_Pstandard_CClass_MtoString
	.cfi_startproc
# BB#0:
	pushl	%eax
Ltmp192:
	.cfi_def_cfa_offset 8
	movl	8(%esp), %eax
	movl	%eax, (%esp)
	movl	16(%eax), %eax
	popl	%edx
	ret
	.cfi_endproc

	.def	 __Pshadow_Pstandard_CClass_Mcreate;
	.scl	2;
	.type	32;
	.endef
	.globl	__Pshadow_Pstandard_CClass_Mcreate
	.align	16, 0x90
__Pshadow_Pstandard_CClass_Mcreate:     # @_Pshadow_Pstandard_CClass_Mcreate
	.cfi_startproc
# BB#0:
	pushl	%edi
Ltmp196:
	.cfi_def_cfa_offset 8
	pushl	%esi
Ltmp197:
	.cfi_def_cfa_offset 12
	subl	$12, %esp
Ltmp198:
	.cfi_def_cfa_offset 24
Ltmp199:
	.cfi_offset %esi, -12
Ltmp200:
	.cfi_offset %edi, -8
	movl	24(%esp), %esi
	movl	%esi, 8(%esp)
	movl	%esi, (%esp)
	calll	__Pshadow_Pstandard_CObject_Mcreate
	movl	$__Pshadow_Pstandard_CClass_Mclass, (%esi)
	movl	8(%esp), %eax
	movl	$0, 24(%eax)
	movl	8(%esp), %eax
	movl	$0, 32(%eax)
	movl	8(%esp), %eax
	movl	$L__string124, 16(%eax)
	movl	8(%esp), %eax
	movl	$0, 12(%eax)
	movl	8(%esp), %edi
	movl	$0, 4(%esp)
	movl	$__Pshadow_Pstandard_CClass_Mclass, (%esp)
	calll	__Pshadow_Pstandard_CClass_Mallocate_Pshadow_Pstandard_Cint
	movl	%eax, 4(%edi)
	movl	$0, 8(%edi)
	movl	8(%esp), %eax
	movl	$0, 20(%eax)
	movl	8(%esp), %eax
	movl	$0, 28(%eax)
	movl	%esi, %eax
	addl	$12, %esp
	popl	%esi
	popl	%edi
	ret
	.cfi_endproc

	.def	 __Pshadow_Pstandard_CClass_Mallocate;
	.scl	2;
	.type	32;
	.endef
	.globl	__Pshadow_Pstandard_CClass_Mallocate
	.align	16, 0x90
__Pshadow_Pstandard_CClass_Mallocate:   # @_Pshadow_Pstandard_CClass_Mallocate
	.cfi_startproc
# BB#0:
	pushl	%eax
Ltmp202:
	.cfi_def_cfa_offset 8
	movl	8(%esp), %eax
	movl	28(%eax), %eax
	movl	%eax, (%esp)
	calll	_malloc
	popl	%edx
	ret
	.cfi_endproc

	.def	 __Pshadow_Pstandard_CClass_Mallocate_Pshadow_Pstandard_Cint;
	.scl	2;
	.type	32;
	.endef
	.globl	__Pshadow_Pstandard_CClass_Mallocate_Pshadow_Pstandard_Cint
	.align	16, 0x90
__Pshadow_Pstandard_CClass_Mallocate_Pshadow_Pstandard_Cint: # @_Pshadow_Pstandard_CClass_Mallocate_Pshadow_Pstandard_Cint
	.cfi_startproc
# BB#0:
	subl	$8, %esp
Ltmp204:
	.cfi_def_cfa_offset 12
	movl	12(%esp), %eax
	movl	32(%eax), %eax
	movl	%eax, 4(%esp)
	movl	16(%esp), %eax
	movl	%eax, (%esp)
	calll	_calloc
	addl	$8, %esp
	ret
	.cfi_endproc

	.def	 __Pshadow_Pstandard_Cdouble_MtoString;
	.scl	2;
	.type	32;
	.endef
	.globl	__Pshadow_Pstandard_Cdouble_MtoString
	.align	16, 0x90
__Pshadow_Pstandard_Cdouble_MtoString:  # @_Pshadow_Pstandard_Cdouble_MtoString
	.cfi_startproc
# BB#0:
	pushl	%ebp
Ltmp208:
	.cfi_def_cfa_offset 8
Ltmp209:
	.cfi_offset %ebp, -8
	movl	%esp, %ebp
Ltmp210:
	.cfi_def_cfa_register %ebp
	pushl	%edi
	pushl	%esi
	subl	$40, %esp
Ltmp211:
	.cfi_offset %esi, -16
Ltmp212:
	.cfi_offset %edi, -12
	movl	8(%ebp), %eax
	movsd	8(%eax), %xmm0
	movsd	%xmm0, 8(%esp)
	leal	-32(%ebp), %edi
	movl	%edi, (%esp)
	movl	$L_format, 4(%esp)
	calll	_sprintf
	movl	$__Pshadow_Pstandard_CString_Mclass, (%esp)
	calll	__Pshadow_Pstandard_CClass_Mallocate
	movl	%eax, %esi
	movl	%edi, (%esp)
	calll	_strlen
	movl	%eax, 8(%esp)
	movl	%edi, 4(%esp)
	movl	%esi, (%esp)
	calll	__Pshadow_Pstandard_CString_Mcreate_Pshadow_Pstandard_Cbyte_A1
	addl	$40, %esp
	popl	%esi
	popl	%edi
	popl	%ebp
	ret
	.cfi_endproc

	.def	 __Pshadow_Pstandard_CException_Mmessage;
	.scl	2;
	.type	32;
	.endef
	.globl	__Pshadow_Pstandard_CException_Mmessage
	.align	16, 0x90
__Pshadow_Pstandard_CException_Mmessage: # @_Pshadow_Pstandard_CException_Mmessage
	.cfi_startproc
# BB#0:
	pushl	%eax
Ltmp214:
	.cfi_def_cfa_offset 8
	movl	8(%esp), %eax
	movl	%eax, (%esp)
	movl	4(%eax), %eax
	popl	%edx
	ret
	.cfi_endproc

	.def	 __Pshadow_Pstandard_CException_Mterminate;
	.scl	2;
	.type	32;
	.endef
	.globl	__Pshadow_Pstandard_CException_Mterminate
	.align	16, 0x90
__Pshadow_Pstandard_CException_Mterminate: # @_Pshadow_Pstandard_CException_Mterminate
	.cfi_startproc
# BB#0:
	subl	$16, %esp
Ltmp216:
	.cfi_def_cfa_offset 20
	movl	20(%esp), %eax
	movl	%eax, 12(%esp)
	cmpl	$0, __Pshadow_Pio_CConsole_Minstance
	jne	LBB38_2
# BB#1:                                 # %_label0
	movl	$__Pshadow_Pio_CConsole_Mclass, (%esp)
	calll	__Pshadow_Pstandard_CClass_Mallocate
	movl	%eax, (%esp)
	calll	__Pshadow_Pio_CConsole_Mcreate
	movl	%eax, __Pshadow_Pio_CConsole_Minstance
LBB38_2:                                # %_label1
	movl	__Pshadow_Pio_CConsole_Minstance, %eax
	movl	%eax, 8(%esp)
	movl	12(%esp), %eax
	movl	(%eax), %ecx
	movl	%eax, (%esp)
	calll	*52(%ecx)
	movl	8(%esp), %ecx
	movl	%eax, 4(%esp)
	movl	%ecx, (%esp)
	calll	__Pshadow_Pio_CConsole_MprintError_Pshadow_Pstandard_CObject
	movl	12(%esp), %eax
	movl	4(%eax), %eax
	movl	%eax, (%esp)
	calll	__Pshadow_Pstandard_CString_MisEmpty
	notb	%al
	testb	$1, %al
	je	LBB38_4
# BB#3:                                 # %_label2
	movl	8(%esp), %eax
	movl	%eax, (%esp)
	movl	$L__string146, 4(%esp)
	calll	__Pshadow_Pio_CConsole_MprintError_Pshadow_Pstandard_CString
	movl	12(%esp), %ecx
	movl	4(%ecx), %ecx
	movl	%ecx, 4(%esp)
	movl	%eax, (%esp)
	calll	__Pshadow_Pio_CConsole_MprintError_Pshadow_Pstandard_CString
LBB38_4:                                # %_label4
	movl	8(%esp), %eax
	movl	%eax, (%esp)
	calll	__Pshadow_Pio_CConsole_MprintErrorLine
	movl	$1, %eax
	addl	$16, %esp
	ret
	.cfi_endproc

	.def	 __Pshadow_Pstandard_CException_Mcreate;
	.scl	2;
	.type	32;
	.endef
	.globl	__Pshadow_Pstandard_CException_Mcreate
	.align	16, 0x90
__Pshadow_Pstandard_CException_Mcreate: # @_Pshadow_Pstandard_CException_Mcreate
	.cfi_startproc
# BB#0:
	pushl	%esi
Ltmp219:
	.cfi_def_cfa_offset 8
	subl	$8, %esp
Ltmp220:
	.cfi_def_cfa_offset 16
Ltmp221:
	.cfi_offset %esi, -8
	movl	16(%esp), %esi
	movl	%esi, 4(%esp)
	movl	%esi, (%esp)
	calll	__Pshadow_Pstandard_CObject_Mcreate
	movl	$__Pshadow_Pstandard_CException_Mclass, (%esi)
	movl	4(%esp), %eax
	movl	$L__string248, 4(%eax)
	movl	%esi, %eax
	addl	$8, %esp
	popl	%esi
	ret
	.cfi_endproc

	.def	 __Pshadow_Pstandard_CException_Mcreate_Pshadow_Pstandard_CString;
	.scl	2;
	.type	32;
	.endef
	.globl	__Pshadow_Pstandard_CException_Mcreate_Pshadow_Pstandard_CString
	.align	16, 0x90
__Pshadow_Pstandard_CException_Mcreate_Pshadow_Pstandard_CString: # @_Pshadow_Pstandard_CException_Mcreate_Pshadow_Pstandard_CString
	.cfi_startproc
# BB#0:
	pushl	%esi
Ltmp224:
	.cfi_def_cfa_offset 8
	subl	$12, %esp
Ltmp225:
	.cfi_def_cfa_offset 20
Ltmp226:
	.cfi_offset %esi, -8
	movl	20(%esp), %esi
	movl	%esi, 8(%esp)
	movl	24(%esp), %eax
	movl	%eax, 4(%esp)
	movl	8(%esp), %eax
	movl	%eax, (%esp)
	calll	__Pshadow_Pstandard_CObject_Mcreate
	movl	$__Pshadow_Pstandard_CException_Mclass, (%esi)
	movl	8(%esp), %eax
	movl	$L__string248, 4(%eax)
	movl	4(%esp), %eax
	movl	8(%esp), %ecx
	movl	%eax, 4(%ecx)
	movl	%esi, %eax
	addl	$12, %esp
	popl	%esi
	ret
	.cfi_endproc

	.def	 __Pshadow_Pstandard_CIllegalArgumentException_Mcreate;
	.scl	2;
	.type	32;
	.endef
	.globl	__Pshadow_Pstandard_CIllegalArgumentException_Mcreate
	.align	16, 0x90
__Pshadow_Pstandard_CIllegalArgumentException_Mcreate: # @_Pshadow_Pstandard_CIllegalArgumentException_Mcreate
	.cfi_startproc
# BB#0:
	pushl	%esi
Ltmp229:
	.cfi_def_cfa_offset 8
	subl	$8, %esp
Ltmp230:
	.cfi_def_cfa_offset 16
Ltmp231:
	.cfi_offset %esi, -8
	movl	16(%esp), %esi
	movl	%esi, 4(%esp)
	movl	%esi, (%esp)
	calll	__Pshadow_Pstandard_CException_Mcreate
	movl	$__Pshadow_Pstandard_CIllegalArgumentException_Mclass, (%esi)
	movl	%esi, %eax
	addl	$8, %esp
	popl	%esi
	ret
	.cfi_endproc

	.def	 __Pshadow_Pstandard_CIndexOutOfBoundsException_Mcreate;
	.scl	2;
	.type	32;
	.endef
	.globl	__Pshadow_Pstandard_CIndexOutOfBoundsException_Mcreate
	.align	16, 0x90
__Pshadow_Pstandard_CIndexOutOfBoundsException_Mcreate: # @_Pshadow_Pstandard_CIndexOutOfBoundsException_Mcreate
	.cfi_startproc
# BB#0:
	pushl	%esi
Ltmp234:
	.cfi_def_cfa_offset 8
	subl	$8, %esp
Ltmp235:
	.cfi_def_cfa_offset 16
Ltmp236:
	.cfi_offset %esi, -8
	movl	16(%esp), %esi
	movl	%esi, 4(%esp)
	movl	%esi, (%esp)
	calll	__Pshadow_Pstandard_CException_Mcreate
	movl	$__Pshadow_Pstandard_CIndexOutOfBoundsException_Mclass, (%esi)
	movl	%esi, %eax
	addl	$8, %esp
	popl	%esi
	ret
	.cfi_endproc

	.def	 __Pshadow_Pstandard_CIndexOutOfBoundsException_Mcreate_Pshadow_Pstandard_Cint;
	.scl	2;
	.type	32;
	.endef
	.globl	__Pshadow_Pstandard_CIndexOutOfBoundsException_Mcreate_Pshadow_Pstandard_Cint
	.align	16, 0x90
__Pshadow_Pstandard_CIndexOutOfBoundsException_Mcreate_Pshadow_Pstandard_Cint: # @_Pshadow_Pstandard_CIndexOutOfBoundsException_Mcreate_Pshadow_Pstandard_Cint
	.cfi_startproc
# BB#0:
	pushl	%ebp
Ltmp242:
	.cfi_def_cfa_offset 8
	pushl	%ebx
Ltmp243:
	.cfi_def_cfa_offset 12
	pushl	%edi
Ltmp244:
	.cfi_def_cfa_offset 16
	pushl	%esi
Ltmp245:
	.cfi_def_cfa_offset 20
	subl	$24, %esp
Ltmp246:
	.cfi_def_cfa_offset 44
Ltmp247:
	.cfi_offset %esi, -20
Ltmp248:
	.cfi_offset %edi, -16
Ltmp249:
	.cfi_offset %ebx, -12
Ltmp250:
	.cfi_offset %ebp, -8
	movl	44(%esp), %esi
	movl	%esi, 20(%esp)
	movl	48(%esp), %eax
	movl	%eax, 16(%esp)
	movl	$L__string162, %eax
	testl	%eax, %eax
	je	LBB43_1
# BB#2:                                 # %_label1
	movl	$L__string162, (%esp)
	movl	L__string162, %eax
	calll	*56(%eax)
	movl	%eax, 12(%esp)
	jmp	LBB43_3
LBB43_1:                                # %_label0
	movl	$L__string264, 12(%esp)
LBB43_3:                                # %_label2
	movl	12(%esp), %edi
	movl	16(%esp), %ebx
	movl	$__Pshadow_Pstandard_Cint_Mclass, (%esp)
	calll	__Pshadow_Pstandard_CClass_Mallocate
	movl	$__Pshadow_Pstandard_Cint_Mclass, (%eax)
	movl	%ebx, 4(%eax)
	movl	(%eax), %eax
	movl	56(%eax), %ebx
	movl	16(%esp), %ebp
	movl	$__Pshadow_Pstandard_Cint_Mclass, (%esp)
	calll	__Pshadow_Pstandard_CClass_Mallocate
	movl	$__Pshadow_Pstandard_Cint_Mclass, (%eax)
	movl	%ebp, 4(%eax)
	movl	%eax, (%esp)
	calll	*%ebx
	movl	%eax, 4(%esp)
	movl	%edi, (%esp)
	calll	__Pshadow_Pstandard_CString_Mconcatenate_Pshadow_Pstandard_CString
	movl	%eax, %edi
	movl	$L__string366, %eax
	testl	%eax, %eax
	je	LBB43_4
# BB#5:                                 # %_label4
	movl	$L__string366, (%esp)
	movl	L__string366, %eax
	calll	*56(%eax)
	movl	%eax, 8(%esp)
	jmp	LBB43_6
LBB43_4:                                # %_label3
	movl	$L__string264, 8(%esp)
LBB43_6:                                # %_label5
	movl	8(%esp), %eax
	movl	%eax, 4(%esp)
	movl	%edi, (%esp)
	calll	__Pshadow_Pstandard_CString_Mconcatenate_Pshadow_Pstandard_CString
	movl	20(%esp), %ecx
	movl	%eax, 4(%esp)
	movl	%ecx, (%esp)
	calll	__Pshadow_Pstandard_CException_Mcreate_Pshadow_Pstandard_CString
	movl	$__Pshadow_Pstandard_CIndexOutOfBoundsException_Mclass, (%esi)
	movl	%esi, %eax
	addl	$24, %esp
	popl	%esi
	popl	%edi
	popl	%ebx
	popl	%ebp
	ret
	.cfi_endproc

	.def	 __Pshadow_Pstandard_CMutableString_Mappend_Pshadow_Pstandard_CObject;
	.scl	2;
	.type	32;
	.endef
	.globl	__Pshadow_Pstandard_CMutableString_Mappend_Pshadow_Pstandard_CObject
	.align	16, 0x90
__Pshadow_Pstandard_CMutableString_Mappend_Pshadow_Pstandard_CObject: # @_Pshadow_Pstandard_CMutableString_Mappend_Pshadow_Pstandard_CObject
	.cfi_startproc
# BB#0:
	pushl	%edi
Ltmp254:
	.cfi_def_cfa_offset 8
	pushl	%esi
Ltmp255:
	.cfi_def_cfa_offset 12
	subl	$28, %esp
Ltmp256:
	.cfi_def_cfa_offset 40
Ltmp257:
	.cfi_offset %esi, -12
Ltmp258:
	.cfi_offset %edi, -8
	movl	40(%esp), %eax
	movl	%eax, 24(%esp)
	movl	44(%esp), %eax
	movl	%eax, 20(%esp)
	testl	%eax, %eax
	je	LBB44_1
# BB#2:                                 # %_label1
	movl	20(%esp), %eax
	movl	(%eax), %ecx
	movl	%eax, (%esp)
	calll	*56(%ecx)
	movl	%eax, 16(%esp)
	jmp	LBB44_3
LBB44_1:                                # %_label0
	movl	$L__string172, 16(%esp)
LBB44_3:                                # %_label2
	movl	16(%esp), %eax
	movl	%eax, 12(%esp)
	movl	24(%esp), %ecx
	movl	(%ecx), %edx
	movl	12(%ecx), %edi
	movl	76(%edx), %esi
	movl	%eax, (%esp)
	calll	__Pshadow_Pstandard_CString_Msize
	addl	%edi, %eax
	movl	24(%esp), %ecx
	movl	%eax, 4(%esp)
	movl	%ecx, (%esp)
	calll	*%esi
	movl	$0, 8(%esp)
	jmp	LBB44_5
	.align	16, 0x90
LBB44_4:                                # %_label3
                                        #   in Loop: Header=BB44_5 Depth=1
	movl	12(%esp), %eax
	movl	8(%esp), %ecx
	movl	%ecx, 4(%esp)
	movl	%eax, (%esp)
	calll	__Pshadow_Pstandard_CString_MgetChar_Pshadow_Pstandard_Cint
	movl	24(%esp), %ecx
	movl	4(%ecx), %edx
	movl	12(%ecx), %ecx
	movb	%al, (%edx,%ecx)
	incl	8(%esp)
	movl	24(%esp), %eax
	incl	12(%eax)
LBB44_5:                                # %_label4
                                        # =>This Inner Loop Header: Depth=1
	movl	8(%esp), %esi
	movl	12(%esp), %eax
	movl	%eax, (%esp)
	calll	__Pshadow_Pstandard_CString_Msize
	cmpl	%eax, %esi
	jl	LBB44_4
# BB#6:                                 # %_label5
	movl	24(%esp), %eax
	addl	$28, %esp
	popl	%esi
	popl	%edi
	ret
	.cfi_endproc

	.def	 __Pshadow_Pstandard_CMutableString_Mreverse;
	.scl	2;
	.type	32;
	.endef
	.globl	__Pshadow_Pstandard_CMutableString_Mreverse
	.align	16, 0x90
__Pshadow_Pstandard_CMutableString_Mreverse: # @_Pshadow_Pstandard_CMutableString_Mreverse
	.cfi_startproc
# BB#0:
	pushl	%esi
Ltmp261:
	.cfi_def_cfa_offset 8
	subl	$12, %esp
Ltmp262:
	.cfi_def_cfa_offset 20
Ltmp263:
	.cfi_offset %esi, -8
	movl	20(%esp), %eax
	movl	%eax, 8(%esp)
	movl	$0, 4(%esp)
	movl	8(%esp), %eax
	movl	12(%eax), %eax
	decl	%eax
	movl	%eax, (%esp)
	jmp	LBB45_2
	.align	16, 0x90
LBB45_1:                                # %_label6
                                        #   in Loop: Header=BB45_2 Depth=1
	movl	8(%esp), %eax
	movl	4(%eax), %eax
	movl	4(%esp), %ecx
	movb	(%eax,%ecx), %dl
	movl	(%esp), %esi
	movb	(%eax,%esi), %dh
	movb	%dh, (%eax,%ecx)
	movb	%dl, (%eax,%esi)
	incl	4(%esp)
	decl	(%esp)
LBB45_2:                                # %_label7
                                        # =>This Inner Loop Header: Depth=1
	movl	4(%esp), %eax
	cmpl	(%esp), %eax
	jl	LBB45_1
# BB#3:                                 # %_label8
	movl	8(%esp), %eax
	addl	$12, %esp
	popl	%esi
	ret
	.cfi_endproc

	.def	 __Pshadow_Pstandard_CMutableString_MensureCapacity_Pshadow_Pstandard_Cint;
	.scl	2;
	.type	32;
	.endef
	.globl	__Pshadow_Pstandard_CMutableString_MensureCapacity_Pshadow_Pstandard_Cint
	.align	16, 0x90
__Pshadow_Pstandard_CMutableString_MensureCapacity_Pshadow_Pstandard_Cint: # @_Pshadow_Pstandard_CMutableString_MensureCapacity_Pshadow_Pstandard_Cint
	.cfi_startproc
# BB#0:
	pushl	%ebp
Ltmp267:
	.cfi_def_cfa_offset 8
Ltmp268:
	.cfi_offset %ebp, -8
	movl	%esp, %ebp
Ltmp269:
	.cfi_def_cfa_register %ebp
	pushl	%esi
	andl	$-8, %esp
	subl	$40, %esp
Ltmp270:
	.cfi_offset %esi, -12
	movl	8(%ebp), %eax
	movl	%eax, 32(%esp)
	movl	12(%ebp), %eax
	movl	%eax, 28(%esp)
	movl	32(%esp), %eax
	movl	(%eax), %ecx
	movl	%eax, (%esp)
	calll	*64(%ecx)
	cmpl	28(%esp), %eax
	jge	LBB46_5
# BB#1:                                 # %_label9
	movl	28(%esp), %esi
	movl	%esi, 4(%esp)
	movl	$__Pshadow_Pstandard_Cbyte_Mclass, (%esp)
	calll	__Pshadow_Pstandard_CClass_Mallocate_Pshadow_Pstandard_Cint
	movl	%esi, 20(%esp)
	movl	%eax, 16(%esp)
	movl	$0, 12(%esp)
	jmp	LBB46_3
	.align	16, 0x90
LBB46_2:                                # %_label12
                                        #   in Loop: Header=BB46_3 Depth=1
	movl	32(%esp), %eax
	movl	4(%eax), %ecx
	movl	12(%esp), %eax
	movb	(%ecx,%eax), %cl
	movl	16(%esp), %edx
	movb	%cl, (%edx,%eax)
	incl	12(%esp)
LBB46_3:                                # %_label13
                                        # =>This Inner Loop Header: Depth=1
	movl	32(%esp), %eax
	movl	(%eax), %ecx
	movl	12(%esp), %esi
	movl	%eax, (%esp)
	calll	*84(%ecx)
	cmpl	%eax, %esi
	jl	LBB46_2
# BB#4:                                 # %_label14
	movl	16(%esp), %eax
	movl	20(%esp), %ecx
	movl	32(%esp), %edx
	movl	%ecx, 8(%edx)
	movl	%eax, 4(%edx)
LBB46_5:                                # %_label11
	movl	32(%esp), %eax
	leal	-4(%ebp), %esp
	popl	%esi
	popl	%ebp
	ret
	.cfi_endproc

	.def	 __Pshadow_Pstandard_CMutableString_Mcapacity;
	.scl	2;
	.type	32;
	.endef
	.globl	__Pshadow_Pstandard_CMutableString_Mcapacity
	.align	16, 0x90
__Pshadow_Pstandard_CMutableString_Mcapacity: # @_Pshadow_Pstandard_CMutableString_Mcapacity
	.cfi_startproc
# BB#0:
	pushl	%ebp
Ltmp276:
	.cfi_def_cfa_offset 8
	pushl	%ebx
Ltmp277:
	.cfi_def_cfa_offset 12
	pushl	%edi
Ltmp278:
	.cfi_def_cfa_offset 16
	pushl	%esi
Ltmp279:
	.cfi_def_cfa_offset 20
	subl	$24, %esp
Ltmp280:
	.cfi_def_cfa_offset 44
Ltmp281:
	.cfi_offset %esi, -20
Ltmp282:
	.cfi_offset %edi, -16
Ltmp283:
	.cfi_offset %ebx, -12
Ltmp284:
	.cfi_offset %ebp, -8
	movl	44(%esp), %eax
	movl	%eax, 20(%esp)
	movl	4(%eax), %edi
	movl	8(%eax), %ebx
	movl	$1, 4(%esp)
	movl	$__Pshadow_Pstandard_Cint_Mclass, (%esp)
	calll	__Pshadow_Pstandard_CClass_Mallocate_Pshadow_Pstandard_Cint
	movl	%eax, %esi
	movl	%ebx, (%esi)
	movl	$__Pshadow_Pstandard_CArray_Mclass, (%esp)
	calll	__Pshadow_Pstandard_CClass_Mallocate
	movl	%edi, 16(%esp)
	movl	%esi, 8(%esp)
	movl	%eax, (%esp)
	movl	$1, 12(%esp)
	movl	$__Pshadow_Pstandard_Cbyte_Mclass, 4(%esp)
	calll	__Pshadow_Pstandard_CArray_Mcreate_Pshadow_Pstandard_Cint_A1_Pshadow_Pstandard_CObject
	movl	(%eax), %eax
	movl	84(%eax), %ebp
	movl	$1, 4(%esp)
	movl	$__Pshadow_Pstandard_Cint_Mclass, (%esp)
	calll	__Pshadow_Pstandard_CClass_Mallocate_Pshadow_Pstandard_Cint
	movl	%eax, %esi
	movl	%ebx, (%esi)
	movl	$__Pshadow_Pstandard_CArray_Mclass, (%esp)
	calll	__Pshadow_Pstandard_CClass_Mallocate
	movl	%edi, 16(%esp)
	movl	%esi, 8(%esp)
	movl	%eax, (%esp)
	movl	$1, 12(%esp)
	movl	$__Pshadow_Pstandard_Cbyte_Mclass, 4(%esp)
	calll	__Pshadow_Pstandard_CArray_Mcreate_Pshadow_Pstandard_Cint_A1_Pshadow_Pstandard_CObject
	movl	%eax, (%esp)
	calll	*%ebp
	addl	$24, %esp
	popl	%esi
	popl	%edi
	popl	%ebx
	popl	%ebp
	ret
	.cfi_endproc

	.def	 __Pshadow_Pstandard_CMutableString_MtoString;
	.scl	2;
	.type	32;
	.endef
	.globl	__Pshadow_Pstandard_CMutableString_MtoString
	.align	16, 0x90
__Pshadow_Pstandard_CMutableString_MtoString: # @_Pshadow_Pstandard_CMutableString_MtoString
	.cfi_startproc
# BB#0:
	pushl	%ebp
Ltmp290:
	.cfi_def_cfa_offset 8
	pushl	%ebx
Ltmp291:
	.cfi_def_cfa_offset 12
	pushl	%edi
Ltmp292:
	.cfi_def_cfa_offset 16
	pushl	%esi
Ltmp293:
	.cfi_def_cfa_offset 20
	subl	$32, %esp
Ltmp294:
	.cfi_def_cfa_offset 52
Ltmp295:
	.cfi_offset %esi, -20
Ltmp296:
	.cfi_offset %edi, -16
Ltmp297:
	.cfi_offset %ebx, -12
Ltmp298:
	.cfi_offset %ebp, -8
	movl	52(%esp), %eax
	movl	%eax, 28(%esp)
	movl	$__Pshadow_Pstandard_CString_Mclass, (%esp)
	calll	__Pshadow_Pstandard_CClass_Mallocate
	movl	%eax, 24(%esp)          # 4-byte Spill
	movl	28(%esp), %ebp
	movl	4(%ebp), %esi
	movl	8(%ebp), %ebx
	movl	$1, 4(%esp)
	movl	$__Pshadow_Pstandard_Cint_Mclass, (%esp)
	calll	__Pshadow_Pstandard_CClass_Mallocate_Pshadow_Pstandard_Cint
	movl	%eax, %edi
	movl	%ebx, (%edi)
	movl	$__Pshadow_Pstandard_CArray_Mclass, (%esp)
	calll	__Pshadow_Pstandard_CClass_Mallocate
	movl	%esi, 16(%esp)
	movl	%edi, 8(%esp)
	movl	%eax, (%esp)
	movl	$1, 12(%esp)
	movl	$__Pshadow_Pstandard_Cbyte_Mclass, 4(%esp)
	calll	__Pshadow_Pstandard_CArray_Mcreate_Pshadow_Pstandard_Cint_A1_Pshadow_Pstandard_CObject
	movl	(%eax), %eax
	movl	88(%eax), %eax
	movl	%eax, 20(%esp)          # 4-byte Spill
	movl	4(%ebp), %esi
	movl	8(%ebp), %ebx
	movl	28(%esp), %ebp
	movl	$1, 4(%esp)
	movl	$__Pshadow_Pstandard_Cint_Mclass, (%esp)
	calll	__Pshadow_Pstandard_CClass_Mallocate_Pshadow_Pstandard_Cint
	movl	%eax, %edi
	movl	%ebx, (%edi)
	movl	$__Pshadow_Pstandard_CArray_Mclass, (%esp)
	calll	__Pshadow_Pstandard_CClass_Mallocate
	movl	%esi, 16(%esp)
	movl	%edi, 8(%esp)
	movl	%eax, (%esp)
	movl	$1, 12(%esp)
	movl	$__Pshadow_Pstandard_Cbyte_Mclass, 4(%esp)
	calll	__Pshadow_Pstandard_CArray_Mcreate_Pshadow_Pstandard_Cint_A1_Pshadow_Pstandard_CObject
	movl	12(%ebp), %ecx
	movl	%ecx, 8(%esp)
	movl	%eax, (%esp)
	movl	$0, 4(%esp)
	calll	*20(%esp)               # 4-byte Folded Reload
	movl	4(%eax), %ecx
	movl	16(%eax), %eax
	movl	(%ecx), %ecx
	movl	%ecx, 8(%esp)
	movl	%eax, 4(%esp)
	movl	24(%esp), %esi          # 4-byte Reload
	movl	%esi, (%esp)
	calll	__Pshadow_Pstandard_CString_Mcreate_Pshadow_Pstandard_Cbyte_A1
	movl	%esi, %eax
	addl	$32, %esp
	popl	%esi
	popl	%edi
	popl	%ebx
	popl	%ebp
	ret
	.cfi_endproc

	.def	 __Pshadow_Pstandard_CMutableString_Mcreate;
	.scl	2;
	.type	32;
	.endef
	.globl	__Pshadow_Pstandard_CMutableString_Mcreate
	.align	16, 0x90
__Pshadow_Pstandard_CMutableString_Mcreate: # @_Pshadow_Pstandard_CMutableString_Mcreate
	.cfi_startproc
# BB#0:
	pushl	%edi
Ltmp302:
	.cfi_def_cfa_offset 8
	pushl	%esi
Ltmp303:
	.cfi_def_cfa_offset 12
	subl	$12, %esp
Ltmp304:
	.cfi_def_cfa_offset 24
Ltmp305:
	.cfi_offset %esi, -12
Ltmp306:
	.cfi_offset %edi, -8
	movl	24(%esp), %esi
	movl	%esi, 8(%esp)
	movl	%esi, (%esp)
	calll	__Pshadow_Pstandard_CObject_Mcreate
	movl	$__Pshadow_Pstandard_CMutableString_Mclass, (%esi)
	movl	8(%esp), %edi
	movl	$10, 4(%esp)
	movl	$__Pshadow_Pstandard_Cbyte_Mclass, (%esp)
	calll	__Pshadow_Pstandard_CClass_Mallocate_Pshadow_Pstandard_Cint
	movl	%eax, 4(%edi)
	movl	$10, 8(%edi)
	movl	8(%esp), %eax
	movl	$0, 12(%eax)
	movl	%esi, %eax
	addl	$12, %esp
	popl	%esi
	popl	%edi
	ret
	.cfi_endproc

	.def	 __Pshadow_Pstandard_CMutableString_Mcreate_Pshadow_Pstandard_Cint;
	.scl	2;
	.type	32;
	.endef
	.globl	__Pshadow_Pstandard_CMutableString_Mcreate_Pshadow_Pstandard_Cint
	.align	16, 0x90
__Pshadow_Pstandard_CMutableString_Mcreate_Pshadow_Pstandard_Cint: # @_Pshadow_Pstandard_CMutableString_Mcreate_Pshadow_Pstandard_Cint
	.cfi_startproc
# BB#0:
	pushl	%edi
Ltmp310:
	.cfi_def_cfa_offset 8
	pushl	%esi
Ltmp311:
	.cfi_def_cfa_offset 12
	subl	$16, %esp
Ltmp312:
	.cfi_def_cfa_offset 28
Ltmp313:
	.cfi_offset %esi, -12
Ltmp314:
	.cfi_offset %edi, -8
	movl	28(%esp), %esi
	movl	%esi, 12(%esp)
	movl	32(%esp), %eax
	movl	%eax, 8(%esp)
	movl	12(%esp), %eax
	movl	%eax, (%esp)
	calll	__Pshadow_Pstandard_CObject_Mcreate
	movl	$__Pshadow_Pstandard_CMutableString_Mclass, (%esi)
	movl	12(%esp), %edi
	movl	$10, 4(%esp)
	movl	$__Pshadow_Pstandard_Cbyte_Mclass, (%esp)
	calll	__Pshadow_Pstandard_CClass_Mallocate_Pshadow_Pstandard_Cint
	movl	%eax, 4(%edi)
	movl	$10, 8(%edi)
	movl	12(%esp), %eax
	movl	$0, 12(%eax)
	movl	8(%esp), %edi
	movl	%edi, 4(%esp)
	movl	$__Pshadow_Pstandard_Cbyte_Mclass, (%esp)
	calll	__Pshadow_Pstandard_CClass_Mallocate_Pshadow_Pstandard_Cint
	movl	12(%esp), %ecx
	movl	%edi, 8(%ecx)
	movl	%eax, 4(%ecx)
	movl	%esi, %eax
	addl	$16, %esp
	popl	%esi
	popl	%edi
	ret
	.cfi_endproc

	.def	 __Pshadow_Pstandard_CMutableString_Mcreate_Pshadow_Pstandard_CObject;
	.scl	2;
	.type	32;
	.endef
	.globl	__Pshadow_Pstandard_CMutableString_Mcreate_Pshadow_Pstandard_CObject
	.align	16, 0x90
__Pshadow_Pstandard_CMutableString_Mcreate_Pshadow_Pstandard_CObject: # @_Pshadow_Pstandard_CMutableString_Mcreate_Pshadow_Pstandard_CObject
	.cfi_startproc
# BB#0:
	pushl	%edi
Ltmp318:
	.cfi_def_cfa_offset 8
	pushl	%esi
Ltmp319:
	.cfi_def_cfa_offset 12
	subl	$16, %esp
Ltmp320:
	.cfi_def_cfa_offset 28
Ltmp321:
	.cfi_offset %esi, -12
Ltmp322:
	.cfi_offset %edi, -8
	movl	28(%esp), %esi
	movl	%esi, 12(%esp)
	movl	32(%esp), %eax
	movl	%eax, 8(%esp)
	movl	12(%esp), %eax
	movl	%eax, (%esp)
	calll	__Pshadow_Pstandard_CObject_Mcreate
	movl	$__Pshadow_Pstandard_CMutableString_Mclass, (%esi)
	movl	12(%esp), %edi
	movl	$10, 4(%esp)
	movl	$__Pshadow_Pstandard_Cbyte_Mclass, (%esp)
	calll	__Pshadow_Pstandard_CClass_Mallocate_Pshadow_Pstandard_Cint
	movl	%eax, 4(%edi)
	movl	$10, 8(%edi)
	movl	12(%esp), %eax
	movl	$0, 12(%eax)
	movl	12(%esp), %eax
	movl	(%eax), %ecx
	movl	8(%esp), %edx
	movl	%edx, 4(%esp)
	movl	%eax, (%esp)
	calll	*60(%ecx)
	movl	%esi, %eax
	addl	$16, %esp
	popl	%esi
	popl	%edi
	ret
	.cfi_endproc

	.def	 __Pshadow_Pstandard_CMutableString_Msize;
	.scl	2;
	.type	32;
	.endef
	.globl	__Pshadow_Pstandard_CMutableString_Msize
	.align	16, 0x90
__Pshadow_Pstandard_CMutableString_Msize: # @_Pshadow_Pstandard_CMutableString_Msize
	.cfi_startproc
# BB#0:
	pushl	%eax
Ltmp324:
	.cfi_def_cfa_offset 8
	movl	8(%esp), %eax
	movl	%eax, (%esp)
	movl	12(%eax), %eax
	popl	%edx
	ret
	.cfi_endproc

	.def	 __Pshadow_Pstandard_Cbyte_Madd_Pshadow_Pstandard_Cbyte;
	.scl	2;
	.type	32;
	.endef
	.globl	__Pshadow_Pstandard_Cbyte_Madd_Pshadow_Pstandard_Cbyte
	.align	16, 0x90
__Pshadow_Pstandard_Cbyte_Madd_Pshadow_Pstandard_Cbyte: # @_Pshadow_Pstandard_Cbyte_Madd_Pshadow_Pstandard_Cbyte
	.cfi_startproc
# BB#0:
	movb	4(%esp), %al
	addb	8(%esp), %al
	ret
	.cfi_endproc

	.def	 __Pshadow_Pstandard_Cbyte_Msubtract_Pshadow_Pstandard_Cbyte;
	.scl	2;
	.type	32;
	.endef
	.globl	__Pshadow_Pstandard_Cbyte_Msubtract_Pshadow_Pstandard_Cbyte
	.align	16, 0x90
__Pshadow_Pstandard_Cbyte_Msubtract_Pshadow_Pstandard_Cbyte: # @_Pshadow_Pstandard_Cbyte_Msubtract_Pshadow_Pstandard_Cbyte
	.cfi_startproc
# BB#0:
	movb	4(%esp), %al
	subb	8(%esp), %al
	ret
	.cfi_endproc

	.def	 __Pshadow_Pstandard_Cbyte_Mmultiply_Pshadow_Pstandard_Cbyte;
	.scl	2;
	.type	32;
	.endef
	.globl	__Pshadow_Pstandard_Cbyte_Mmultiply_Pshadow_Pstandard_Cbyte
	.align	16, 0x90
__Pshadow_Pstandard_Cbyte_Mmultiply_Pshadow_Pstandard_Cbyte: # @_Pshadow_Pstandard_Cbyte_Mmultiply_Pshadow_Pstandard_Cbyte
	.cfi_startproc
# BB#0:
	movb	4(%esp), %al
	mulb	8(%esp)
	ret
	.cfi_endproc

	.def	 __Pshadow_Pstandard_Cbyte_Mdivide_Pshadow_Pstandard_Cbyte;
	.scl	2;
	.type	32;
	.endef
	.globl	__Pshadow_Pstandard_Cbyte_Mdivide_Pshadow_Pstandard_Cbyte
	.align	16, 0x90
__Pshadow_Pstandard_Cbyte_Mdivide_Pshadow_Pstandard_Cbyte: # @_Pshadow_Pstandard_Cbyte_Mdivide_Pshadow_Pstandard_Cbyte
	.cfi_startproc
# BB#0:
	movb	4(%esp), %al
	cbtw
	idivb	8(%esp)
	ret
	.cfi_endproc

	.def	 __Pshadow_Pstandard_Cbyte_Mmodulus_Pshadow_Pstandard_Cbyte;
	.scl	2;
	.type	32;
	.endef
	.globl	__Pshadow_Pstandard_Cbyte_Mmodulus_Pshadow_Pstandard_Cbyte
	.align	16, 0x90
__Pshadow_Pstandard_Cbyte_Mmodulus_Pshadow_Pstandard_Cbyte: # @_Pshadow_Pstandard_Cbyte_Mmodulus_Pshadow_Pstandard_Cbyte
	.cfi_startproc
# BB#0:
	movb	4(%esp), %al
	cbtw
	idivb	8(%esp)
	movb	%ah, %al
	ret
	.cfi_endproc

	.def	 __Pshadow_Pstandard_Cbyte_Mcompare_Pshadow_Pstandard_Cbyte;
	.scl	2;
	.type	32;
	.endef
	.globl	__Pshadow_Pstandard_Cbyte_Mcompare_Pshadow_Pstandard_Cbyte
	.align	16, 0x90
__Pshadow_Pstandard_Cbyte_Mcompare_Pshadow_Pstandard_Cbyte: # @_Pshadow_Pstandard_Cbyte_Mcompare_Pshadow_Pstandard_Cbyte
	.cfi_startproc
# BB#0:
	movb	4(%esp), %al
	cmpb	8(%esp), %al
	setne	%al
	movzbl	%al, %ecx
	movl	$-1, %eax
	cmovgel	%ecx, %eax
	ret
	.cfi_endproc

	.def	 __Pshadow_Pstandard_Cubyte_Madd_Pshadow_Pstandard_Cubyte;
	.scl	2;
	.type	32;
	.endef
	.globl	__Pshadow_Pstandard_Cubyte_Madd_Pshadow_Pstandard_Cubyte
	.align	16, 0x90
__Pshadow_Pstandard_Cubyte_Madd_Pshadow_Pstandard_Cubyte: # @_Pshadow_Pstandard_Cubyte_Madd_Pshadow_Pstandard_Cubyte
	.cfi_startproc
# BB#0:
	movb	4(%esp), %al
	addb	8(%esp), %al
	ret
	.cfi_endproc

	.def	 __Pshadow_Pstandard_Cubyte_Msubtract_Pshadow_Pstandard_Cubyte;
	.scl	2;
	.type	32;
	.endef
	.globl	__Pshadow_Pstandard_Cubyte_Msubtract_Pshadow_Pstandard_Cubyte
	.align	16, 0x90
__Pshadow_Pstandard_Cubyte_Msubtract_Pshadow_Pstandard_Cubyte: # @_Pshadow_Pstandard_Cubyte_Msubtract_Pshadow_Pstandard_Cubyte
	.cfi_startproc
# BB#0:
	movb	4(%esp), %al
	subb	8(%esp), %al
	ret
	.cfi_endproc

	.def	 __Pshadow_Pstandard_Cubyte_Mmultiply_Pshadow_Pstandard_Cubyte;
	.scl	2;
	.type	32;
	.endef
	.globl	__Pshadow_Pstandard_Cubyte_Mmultiply_Pshadow_Pstandard_Cubyte
	.align	16, 0x90
__Pshadow_Pstandard_Cubyte_Mmultiply_Pshadow_Pstandard_Cubyte: # @_Pshadow_Pstandard_Cubyte_Mmultiply_Pshadow_Pstandard_Cubyte
	.cfi_startproc
# BB#0:
	movb	4(%esp), %al
	mulb	8(%esp)
	ret
	.cfi_endproc

	.def	 __Pshadow_Pstandard_Cubyte_Mdivide_Pshadow_Pstandard_Cubyte;
	.scl	2;
	.type	32;
	.endef
	.globl	__Pshadow_Pstandard_Cubyte_Mdivide_Pshadow_Pstandard_Cubyte
	.align	16, 0x90
__Pshadow_Pstandard_Cubyte_Mdivide_Pshadow_Pstandard_Cubyte: # @_Pshadow_Pstandard_Cubyte_Mdivide_Pshadow_Pstandard_Cubyte
	.cfi_startproc
# BB#0:
	movzbl	4(%esp), %eax
                                        # kill: EAX<def> EAX<kill> AX<def>
	divb	8(%esp)
	ret
	.cfi_endproc

	.def	 __Pshadow_Pstandard_Cubyte_Mmodulus_Pshadow_Pstandard_Cubyte;
	.scl	2;
	.type	32;
	.endef
	.globl	__Pshadow_Pstandard_Cubyte_Mmodulus_Pshadow_Pstandard_Cubyte
	.align	16, 0x90
__Pshadow_Pstandard_Cubyte_Mmodulus_Pshadow_Pstandard_Cubyte: # @_Pshadow_Pstandard_Cubyte_Mmodulus_Pshadow_Pstandard_Cubyte
	.cfi_startproc
# BB#0:
	movzbl	4(%esp), %eax
                                        # kill: EAX<def> EAX<kill> AX<def>
	divb	8(%esp)
	movb	%ah, %al
	ret
	.cfi_endproc

	.def	 __Pshadow_Pstandard_Cubyte_Mcompare_Pshadow_Pstandard_Cubyte;
	.scl	2;
	.type	32;
	.endef
	.globl	__Pshadow_Pstandard_Cubyte_Mcompare_Pshadow_Pstandard_Cubyte
	.align	16, 0x90
__Pshadow_Pstandard_Cubyte_Mcompare_Pshadow_Pstandard_Cubyte: # @_Pshadow_Pstandard_Cubyte_Mcompare_Pshadow_Pstandard_Cubyte
	.cfi_startproc
# BB#0:
	movb	4(%esp), %al
	cmpb	8(%esp), %al
	setne	%al
	movzbl	%al, %ecx
	movl	$-1, %eax
	cmovael	%ecx, %eax
	ret
	.cfi_endproc

	.def	 __Pshadow_Pstandard_Cshort_Madd_Pshadow_Pstandard_Cshort;
	.scl	2;
	.type	32;
	.endef
	.globl	__Pshadow_Pstandard_Cshort_Madd_Pshadow_Pstandard_Cshort
	.align	16, 0x90
__Pshadow_Pstandard_Cshort_Madd_Pshadow_Pstandard_Cshort: # @_Pshadow_Pstandard_Cshort_Madd_Pshadow_Pstandard_Cshort
	.cfi_startproc
# BB#0:
	movw	4(%esp), %ax
	addw	8(%esp), %ax
	ret
	.cfi_endproc

	.def	 __Pshadow_Pstandard_Cshort_Msubtract_Pshadow_Pstandard_Cshort;
	.scl	2;
	.type	32;
	.endef
	.globl	__Pshadow_Pstandard_Cshort_Msubtract_Pshadow_Pstandard_Cshort
	.align	16, 0x90
__Pshadow_Pstandard_Cshort_Msubtract_Pshadow_Pstandard_Cshort: # @_Pshadow_Pstandard_Cshort_Msubtract_Pshadow_Pstandard_Cshort
	.cfi_startproc
# BB#0:
	movw	4(%esp), %ax
	subw	8(%esp), %ax
	ret
	.cfi_endproc

	.def	 __Pshadow_Pstandard_Cshort_Mmultiply_Pshadow_Pstandard_Cshort;
	.scl	2;
	.type	32;
	.endef
	.globl	__Pshadow_Pstandard_Cshort_Mmultiply_Pshadow_Pstandard_Cshort
	.align	16, 0x90
__Pshadow_Pstandard_Cshort_Mmultiply_Pshadow_Pstandard_Cshort: # @_Pshadow_Pstandard_Cshort_Mmultiply_Pshadow_Pstandard_Cshort
	.cfi_startproc
# BB#0:
	movw	4(%esp), %ax
	imulw	8(%esp), %ax
	ret
	.cfi_endproc

	.def	 __Pshadow_Pstandard_Cshort_Mdivide_Pshadow_Pstandard_Cshort;
	.scl	2;
	.type	32;
	.endef
	.globl	__Pshadow_Pstandard_Cshort_Mdivide_Pshadow_Pstandard_Cshort
	.align	16, 0x90
__Pshadow_Pstandard_Cshort_Mdivide_Pshadow_Pstandard_Cshort: # @_Pshadow_Pstandard_Cshort_Mdivide_Pshadow_Pstandard_Cshort
	.cfi_startproc
# BB#0:
	movw	4(%esp), %ax
	cwtd
	idivw	8(%esp)
	ret
	.cfi_endproc

	.def	 __Pshadow_Pstandard_Cshort_Mmodulus_Pshadow_Pstandard_Cshort;
	.scl	2;
	.type	32;
	.endef
	.globl	__Pshadow_Pstandard_Cshort_Mmodulus_Pshadow_Pstandard_Cshort
	.align	16, 0x90
__Pshadow_Pstandard_Cshort_Mmodulus_Pshadow_Pstandard_Cshort: # @_Pshadow_Pstandard_Cshort_Mmodulus_Pshadow_Pstandard_Cshort
	.cfi_startproc
# BB#0:
	movw	4(%esp), %ax
	cwtd
	idivw	8(%esp)
	movw	%dx, %ax
	ret
	.cfi_endproc

	.def	 __Pshadow_Pstandard_Cshort_Mcompare_Pshadow_Pstandard_Cshort;
	.scl	2;
	.type	32;
	.endef
	.globl	__Pshadow_Pstandard_Cshort_Mcompare_Pshadow_Pstandard_Cshort
	.align	16, 0x90
__Pshadow_Pstandard_Cshort_Mcompare_Pshadow_Pstandard_Cshort: # @_Pshadow_Pstandard_Cshort_Mcompare_Pshadow_Pstandard_Cshort
	.cfi_startproc
# BB#0:
	movw	4(%esp), %ax
	cmpw	8(%esp), %ax
	setne	%al
	movzbl	%al, %ecx
	movl	$-1, %eax
	cmovgel	%ecx, %eax
	ret
	.cfi_endproc

	.def	 __Pshadow_Pstandard_Cushort_Madd_Pshadow_Pstandard_Cushort;
	.scl	2;
	.type	32;
	.endef
	.globl	__Pshadow_Pstandard_Cushort_Madd_Pshadow_Pstandard_Cushort
	.align	16, 0x90
__Pshadow_Pstandard_Cushort_Madd_Pshadow_Pstandard_Cushort: # @_Pshadow_Pstandard_Cushort_Madd_Pshadow_Pstandard_Cushort
	.cfi_startproc
# BB#0:
	movw	4(%esp), %ax
	addw	8(%esp), %ax
	ret
	.cfi_endproc

	.def	 __Pshadow_Pstandard_Cushort_Msubtract_Pshadow_Pstandard_Cushort;
	.scl	2;
	.type	32;
	.endef
	.globl	__Pshadow_Pstandard_Cushort_Msubtract_Pshadow_Pstandard_Cushort
	.align	16, 0x90
__Pshadow_Pstandard_Cushort_Msubtract_Pshadow_Pstandard_Cushort: # @_Pshadow_Pstandard_Cushort_Msubtract_Pshadow_Pstandard_Cushort
	.cfi_startproc
# BB#0:
	movw	4(%esp), %ax
	subw	8(%esp), %ax
	ret
	.cfi_endproc

	.def	 __Pshadow_Pstandard_Cushort_Mmultiply_Pshadow_Pstandard_Cushort;
	.scl	2;
	.type	32;
	.endef
	.globl	__Pshadow_Pstandard_Cushort_Mmultiply_Pshadow_Pstandard_Cushort
	.align	16, 0x90
__Pshadow_Pstandard_Cushort_Mmultiply_Pshadow_Pstandard_Cushort: # @_Pshadow_Pstandard_Cushort_Mmultiply_Pshadow_Pstandard_Cushort
	.cfi_startproc
# BB#0:
	movw	4(%esp), %ax
	imulw	8(%esp), %ax
	ret
	.cfi_endproc

	.def	 __Pshadow_Pstandard_Cushort_Mdivide_Pshadow_Pstandard_Cushort;
	.scl	2;
	.type	32;
	.endef
	.globl	__Pshadow_Pstandard_Cushort_Mdivide_Pshadow_Pstandard_Cushort
	.align	16, 0x90
__Pshadow_Pstandard_Cushort_Mdivide_Pshadow_Pstandard_Cushort: # @_Pshadow_Pstandard_Cushort_Mdivide_Pshadow_Pstandard_Cushort
	.cfi_startproc
# BB#0:
	movw	4(%esp), %ax
	xorl	%edx, %edx
	divw	8(%esp)
	ret
	.cfi_endproc

	.def	 __Pshadow_Pstandard_Cushort_Mmodulus_Pshadow_Pstandard_Cushort;
	.scl	2;
	.type	32;
	.endef
	.globl	__Pshadow_Pstandard_Cushort_Mmodulus_Pshadow_Pstandard_Cushort
	.align	16, 0x90
__Pshadow_Pstandard_Cushort_Mmodulus_Pshadow_Pstandard_Cushort: # @_Pshadow_Pstandard_Cushort_Mmodulus_Pshadow_Pstandard_Cushort
	.cfi_startproc
# BB#0:
	movw	4(%esp), %ax
	xorl	%edx, %edx
	divw	8(%esp)
	movw	%dx, %ax
	ret
	.cfi_endproc

	.def	 __Pshadow_Pstandard_Cushort_Mcompare_Pshadow_Pstandard_Cushort;
	.scl	2;
	.type	32;
	.endef
	.globl	__Pshadow_Pstandard_Cushort_Mcompare_Pshadow_Pstandard_Cushort
	.align	16, 0x90
__Pshadow_Pstandard_Cushort_Mcompare_Pshadow_Pstandard_Cushort: # @_Pshadow_Pstandard_Cushort_Mcompare_Pshadow_Pstandard_Cushort
	.cfi_startproc
# BB#0:
	movw	4(%esp), %ax
	cmpw	8(%esp), %ax
	setne	%al
	movzbl	%al, %ecx
	movl	$-1, %eax
	cmovael	%ecx, %eax
	ret
	.cfi_endproc

	.def	 __Pshadow_Pstandard_Cint_Madd_Pshadow_Pstandard_Cint;
	.scl	2;
	.type	32;
	.endef
	.globl	__Pshadow_Pstandard_Cint_Madd_Pshadow_Pstandard_Cint
	.align	16, 0x90
__Pshadow_Pstandard_Cint_Madd_Pshadow_Pstandard_Cint: # @_Pshadow_Pstandard_Cint_Madd_Pshadow_Pstandard_Cint
	.cfi_startproc
# BB#0:
	movl	4(%esp), %eax
	addl	8(%esp), %eax
	ret
	.cfi_endproc

	.def	 __Pshadow_Pstandard_Cint_Msubtract_Pshadow_Pstandard_Cint;
	.scl	2;
	.type	32;
	.endef
	.globl	__Pshadow_Pstandard_Cint_Msubtract_Pshadow_Pstandard_Cint
	.align	16, 0x90
__Pshadow_Pstandard_Cint_Msubtract_Pshadow_Pstandard_Cint: # @_Pshadow_Pstandard_Cint_Msubtract_Pshadow_Pstandard_Cint
	.cfi_startproc
# BB#0:
	movl	4(%esp), %eax
	subl	8(%esp), %eax
	ret
	.cfi_endproc

	.def	 __Pshadow_Pstandard_Cint_Mmultiply_Pshadow_Pstandard_Cint;
	.scl	2;
	.type	32;
	.endef
	.globl	__Pshadow_Pstandard_Cint_Mmultiply_Pshadow_Pstandard_Cint
	.align	16, 0x90
__Pshadow_Pstandard_Cint_Mmultiply_Pshadow_Pstandard_Cint: # @_Pshadow_Pstandard_Cint_Mmultiply_Pshadow_Pstandard_Cint
	.cfi_startproc
# BB#0:
	movl	4(%esp), %eax
	imull	8(%esp), %eax
	ret
	.cfi_endproc

	.def	 __Pshadow_Pstandard_Cint_Mdivide_Pshadow_Pstandard_Cint;
	.scl	2;
	.type	32;
	.endef
	.globl	__Pshadow_Pstandard_Cint_Mdivide_Pshadow_Pstandard_Cint
	.align	16, 0x90
__Pshadow_Pstandard_Cint_Mdivide_Pshadow_Pstandard_Cint: # @_Pshadow_Pstandard_Cint_Mdivide_Pshadow_Pstandard_Cint
	.cfi_startproc
# BB#0:
	movl	4(%esp), %eax
	cltd
	idivl	8(%esp)
	ret
	.cfi_endproc

	.def	 __Pshadow_Pstandard_Cint_Mmodulus_Pshadow_Pstandard_Cint;
	.scl	2;
	.type	32;
	.endef
	.globl	__Pshadow_Pstandard_Cint_Mmodulus_Pshadow_Pstandard_Cint
	.align	16, 0x90
__Pshadow_Pstandard_Cint_Mmodulus_Pshadow_Pstandard_Cint: # @_Pshadow_Pstandard_Cint_Mmodulus_Pshadow_Pstandard_Cint
	.cfi_startproc
# BB#0:
	movl	4(%esp), %eax
	cltd
	idivl	8(%esp)
	movl	%edx, %eax
	ret
	.cfi_endproc

	.def	 __Pshadow_Pstandard_Cint_Mcompare_Pshadow_Pstandard_Cint;
	.scl	2;
	.type	32;
	.endef
	.globl	__Pshadow_Pstandard_Cint_Mcompare_Pshadow_Pstandard_Cint
	.align	16, 0x90
__Pshadow_Pstandard_Cint_Mcompare_Pshadow_Pstandard_Cint: # @_Pshadow_Pstandard_Cint_Mcompare_Pshadow_Pstandard_Cint
	.cfi_startproc
# BB#0:
	movl	4(%esp), %eax
	cmpl	8(%esp), %eax
	setne	%al
	movzbl	%al, %ecx
	movl	$-1, %eax
	cmovgel	%ecx, %eax
	ret
	.cfi_endproc

	.def	 __Pshadow_Pstandard_Cuint_Madd_Pshadow_Pstandard_Cuint;
	.scl	2;
	.type	32;
	.endef
	.globl	__Pshadow_Pstandard_Cuint_Madd_Pshadow_Pstandard_Cuint
	.align	16, 0x90
__Pshadow_Pstandard_Cuint_Madd_Pshadow_Pstandard_Cuint: # @_Pshadow_Pstandard_Cuint_Madd_Pshadow_Pstandard_Cuint
	.cfi_startproc
# BB#0:
	movl	4(%esp), %eax
	addl	8(%esp), %eax
	ret
	.cfi_endproc

	.def	 __Pshadow_Pstandard_Cuint_Msubtract_Pshadow_Pstandard_Cuint;
	.scl	2;
	.type	32;
	.endef
	.globl	__Pshadow_Pstandard_Cuint_Msubtract_Pshadow_Pstandard_Cuint
	.align	16, 0x90
__Pshadow_Pstandard_Cuint_Msubtract_Pshadow_Pstandard_Cuint: # @_Pshadow_Pstandard_Cuint_Msubtract_Pshadow_Pstandard_Cuint
	.cfi_startproc
# BB#0:
	movl	4(%esp), %eax
	subl	8(%esp), %eax
	ret
	.cfi_endproc

	.def	 __Pshadow_Pstandard_Cuint_Mmultiply_Pshadow_Pstandard_Cuint;
	.scl	2;
	.type	32;
	.endef
	.globl	__Pshadow_Pstandard_Cuint_Mmultiply_Pshadow_Pstandard_Cuint
	.align	16, 0x90
__Pshadow_Pstandard_Cuint_Mmultiply_Pshadow_Pstandard_Cuint: # @_Pshadow_Pstandard_Cuint_Mmultiply_Pshadow_Pstandard_Cuint
	.cfi_startproc
# BB#0:
	movl	4(%esp), %eax
	imull	8(%esp), %eax
	ret
	.cfi_endproc

	.def	 __Pshadow_Pstandard_Cuint_Mdivide_Pshadow_Pstandard_Cuint;
	.scl	2;
	.type	32;
	.endef
	.globl	__Pshadow_Pstandard_Cuint_Mdivide_Pshadow_Pstandard_Cuint
	.align	16, 0x90
__Pshadow_Pstandard_Cuint_Mdivide_Pshadow_Pstandard_Cuint: # @_Pshadow_Pstandard_Cuint_Mdivide_Pshadow_Pstandard_Cuint
	.cfi_startproc
# BB#0:
	movl	4(%esp), %eax
	xorl	%edx, %edx
	divl	8(%esp)
	ret
	.cfi_endproc

	.def	 __Pshadow_Pstandard_Cuint_Mmodulus_Pshadow_Pstandard_Cuint;
	.scl	2;
	.type	32;
	.endef
	.globl	__Pshadow_Pstandard_Cuint_Mmodulus_Pshadow_Pstandard_Cuint
	.align	16, 0x90
__Pshadow_Pstandard_Cuint_Mmodulus_Pshadow_Pstandard_Cuint: # @_Pshadow_Pstandard_Cuint_Mmodulus_Pshadow_Pstandard_Cuint
	.cfi_startproc
# BB#0:
	movl	4(%esp), %eax
	xorl	%edx, %edx
	divl	8(%esp)
	movl	%edx, %eax
	ret
	.cfi_endproc

	.def	 __Pshadow_Pstandard_Cuint_Mcompare_Pshadow_Pstandard_Cuint;
	.scl	2;
	.type	32;
	.endef
	.globl	__Pshadow_Pstandard_Cuint_Mcompare_Pshadow_Pstandard_Cuint
	.align	16, 0x90
__Pshadow_Pstandard_Cuint_Mcompare_Pshadow_Pstandard_Cuint: # @_Pshadow_Pstandard_Cuint_Mcompare_Pshadow_Pstandard_Cuint
	.cfi_startproc
# BB#0:
	movl	4(%esp), %eax
	cmpl	8(%esp), %eax
	setne	%al
	movzbl	%al, %ecx
	movl	$-1, %eax
	cmovael	%ecx, %eax
	ret
	.cfi_endproc

	.def	 __Pshadow_Pstandard_Clong_Madd_Pshadow_Pstandard_Clong;
	.scl	2;
	.type	32;
	.endef
	.globl	__Pshadow_Pstandard_Clong_Madd_Pshadow_Pstandard_Clong
	.align	16, 0x90
__Pshadow_Pstandard_Clong_Madd_Pshadow_Pstandard_Clong: # @_Pshadow_Pstandard_Clong_Madd_Pshadow_Pstandard_Clong
	.cfi_startproc
# BB#0:
	movl	8(%esp), %edx
	movl	4(%esp), %eax
	addl	12(%esp), %eax
	adcl	16(%esp), %edx
	ret
	.cfi_endproc

	.def	 __Pshadow_Pstandard_Clong_Msubtract_Pshadow_Pstandard_Clong;
	.scl	2;
	.type	32;
	.endef
	.globl	__Pshadow_Pstandard_Clong_Msubtract_Pshadow_Pstandard_Clong
	.align	16, 0x90
__Pshadow_Pstandard_Clong_Msubtract_Pshadow_Pstandard_Clong: # @_Pshadow_Pstandard_Clong_Msubtract_Pshadow_Pstandard_Clong
	.cfi_startproc
# BB#0:
	movl	8(%esp), %edx
	movl	4(%esp), %eax
	subl	12(%esp), %eax
	sbbl	16(%esp), %edx
	ret
	.cfi_endproc

	.def	 __Pshadow_Pstandard_Clong_Mmultiply_Pshadow_Pstandard_Clong;
	.scl	2;
	.type	32;
	.endef
	.globl	__Pshadow_Pstandard_Clong_Mmultiply_Pshadow_Pstandard_Clong
	.align	16, 0x90
__Pshadow_Pstandard_Clong_Mmultiply_Pshadow_Pstandard_Clong: # @_Pshadow_Pstandard_Clong_Mmultiply_Pshadow_Pstandard_Clong
	.cfi_startproc
# BB#0:
	pushl	%esi
Ltmp327:
	.cfi_def_cfa_offset 8
Ltmp328:
	.cfi_offset %esi, -8
	movl	8(%esp), %esi
	movl	16(%esp), %ecx
	movl	%esi, %eax
	mull	%ecx
	imull	20(%esp), %esi
	addl	%edx, %esi
	imull	12(%esp), %ecx
	addl	%esi, %ecx
	movl	%ecx, %edx
	popl	%esi
	ret
	.cfi_endproc

	.def	 __Pshadow_Pstandard_Clong_Mdivide_Pshadow_Pstandard_Clong;
	.scl	2;
	.type	32;
	.endef
	.globl	__Pshadow_Pstandard_Clong_Mdivide_Pshadow_Pstandard_Clong
	.align	16, 0x90
__Pshadow_Pstandard_Clong_Mdivide_Pshadow_Pstandard_Clong: # @_Pshadow_Pstandard_Clong_Mdivide_Pshadow_Pstandard_Clong
	.cfi_startproc
# BB#0:
	subl	$16, %esp
Ltmp330:
	.cfi_def_cfa_offset 20
	movl	32(%esp), %eax
	movl	%eax, 12(%esp)
	movl	28(%esp), %eax
	movl	%eax, 8(%esp)
	movl	24(%esp), %eax
	movl	%eax, 4(%esp)
	movl	20(%esp), %eax
	movl	%eax, (%esp)
	calll	___divdi3
	addl	$16, %esp
	ret
	.cfi_endproc

	.def	 __Pshadow_Pstandard_Clong_Mmodulus_Pshadow_Pstandard_Clong;
	.scl	2;
	.type	32;
	.endef
	.globl	__Pshadow_Pstandard_Clong_Mmodulus_Pshadow_Pstandard_Clong
	.align	16, 0x90
__Pshadow_Pstandard_Clong_Mmodulus_Pshadow_Pstandard_Clong: # @_Pshadow_Pstandard_Clong_Mmodulus_Pshadow_Pstandard_Clong
	.cfi_startproc
# BB#0:
	subl	$16, %esp
Ltmp332:
	.cfi_def_cfa_offset 20
	movl	32(%esp), %eax
	movl	%eax, 12(%esp)
	movl	28(%esp), %eax
	movl	%eax, 8(%esp)
	movl	24(%esp), %eax
	movl	%eax, 4(%esp)
	movl	20(%esp), %eax
	movl	%eax, (%esp)
	calll	___moddi3
	addl	$16, %esp
	ret
	.cfi_endproc

	.def	 __Pshadow_Pstandard_Clong_Mcompare_Pshadow_Pstandard_Clong;
	.scl	2;
	.type	32;
	.endef
	.globl	__Pshadow_Pstandard_Clong_Mcompare_Pshadow_Pstandard_Clong
	.align	16, 0x90
__Pshadow_Pstandard_Clong_Mcompare_Pshadow_Pstandard_Clong: # @_Pshadow_Pstandard_Clong_Mcompare_Pshadow_Pstandard_Clong
	.cfi_startproc
# BB#0:
	pushl	%edi
Ltmp336:
	.cfi_def_cfa_offset 8
	pushl	%esi
Ltmp337:
	.cfi_def_cfa_offset 12
Ltmp338:
	.cfi_offset %esi, -12
Ltmp339:
	.cfi_offset %edi, -8
	movl	20(%esp), %edx
	movl	12(%esp), %eax
	cmpl	%edx, %eax
	setb	%cl
	movl	24(%esp), %edi
	movl	16(%esp), %esi
	cmpl	%edi, %esi
	setl	%ch
	je	LBB94_2
# BB#1:
	movb	%ch, %cl
LBB94_2:
	xorl	%edi, %esi
	xorl	%edx, %eax
	orl	%esi, %eax
	setne	%al
	movzbl	%al, %edx
	movl	$-1, %eax
	testb	%cl, %cl
	cmovel	%edx, %eax
	popl	%esi
	popl	%edi
	ret
	.cfi_endproc

	.def	 __Pshadow_Pstandard_Culong_Madd_Pshadow_Pstandard_Culong;
	.scl	2;
	.type	32;
	.endef
	.globl	__Pshadow_Pstandard_Culong_Madd_Pshadow_Pstandard_Culong
	.align	16, 0x90
__Pshadow_Pstandard_Culong_Madd_Pshadow_Pstandard_Culong: # @_Pshadow_Pstandard_Culong_Madd_Pshadow_Pstandard_Culong
	.cfi_startproc
# BB#0:
	movl	8(%esp), %edx
	movl	4(%esp), %eax
	addl	12(%esp), %eax
	adcl	16(%esp), %edx
	ret
	.cfi_endproc

	.def	 __Pshadow_Pstandard_Culong_Msubtract_Pshadow_Pstandard_Culong;
	.scl	2;
	.type	32;
	.endef
	.globl	__Pshadow_Pstandard_Culong_Msubtract_Pshadow_Pstandard_Culong
	.align	16, 0x90
__Pshadow_Pstandard_Culong_Msubtract_Pshadow_Pstandard_Culong: # @_Pshadow_Pstandard_Culong_Msubtract_Pshadow_Pstandard_Culong
	.cfi_startproc
# BB#0:
	movl	8(%esp), %edx
	movl	4(%esp), %eax
	subl	12(%esp), %eax
	sbbl	16(%esp), %edx
	ret
	.cfi_endproc

	.def	 __Pshadow_Pstandard_Culong_Mmultiply_Pshadow_Pstandard_Culong;
	.scl	2;
	.type	32;
	.endef
	.globl	__Pshadow_Pstandard_Culong_Mmultiply_Pshadow_Pstandard_Culong
	.align	16, 0x90
__Pshadow_Pstandard_Culong_Mmultiply_Pshadow_Pstandard_Culong: # @_Pshadow_Pstandard_Culong_Mmultiply_Pshadow_Pstandard_Culong
	.cfi_startproc
# BB#0:
	pushl	%esi
Ltmp342:
	.cfi_def_cfa_offset 8
Ltmp343:
	.cfi_offset %esi, -8
	movl	8(%esp), %esi
	movl	16(%esp), %ecx
	movl	%esi, %eax
	mull	%ecx
	imull	20(%esp), %esi
	addl	%edx, %esi
	imull	12(%esp), %ecx
	addl	%esi, %ecx
	movl	%ecx, %edx
	popl	%esi
	ret
	.cfi_endproc

	.def	 __Pshadow_Pstandard_Culong_Mdivide_Pshadow_Pstandard_Culong;
	.scl	2;
	.type	32;
	.endef
	.globl	__Pshadow_Pstandard_Culong_Mdivide_Pshadow_Pstandard_Culong
	.align	16, 0x90
__Pshadow_Pstandard_Culong_Mdivide_Pshadow_Pstandard_Culong: # @_Pshadow_Pstandard_Culong_Mdivide_Pshadow_Pstandard_Culong
	.cfi_startproc
# BB#0:
	subl	$16, %esp
Ltmp345:
	.cfi_def_cfa_offset 20
	movl	32(%esp), %eax
	movl	%eax, 12(%esp)
	movl	28(%esp), %eax
	movl	%eax, 8(%esp)
	movl	24(%esp), %eax
	movl	%eax, 4(%esp)
	movl	20(%esp), %eax
	movl	%eax, (%esp)
	calll	___udivdi3
	addl	$16, %esp
	ret
	.cfi_endproc

	.def	 __Pshadow_Pstandard_Culong_Mmodulus_Pshadow_Pstandard_Culong;
	.scl	2;
	.type	32;
	.endef
	.globl	__Pshadow_Pstandard_Culong_Mmodulus_Pshadow_Pstandard_Culong
	.align	16, 0x90
__Pshadow_Pstandard_Culong_Mmodulus_Pshadow_Pstandard_Culong: # @_Pshadow_Pstandard_Culong_Mmodulus_Pshadow_Pstandard_Culong
	.cfi_startproc
# BB#0:
	subl	$16, %esp
Ltmp347:
	.cfi_def_cfa_offset 20
	movl	32(%esp), %eax
	movl	%eax, 12(%esp)
	movl	28(%esp), %eax
	movl	%eax, 8(%esp)
	movl	24(%esp), %eax
	movl	%eax, 4(%esp)
	movl	20(%esp), %eax
	movl	%eax, (%esp)
	calll	___umoddi3
	addl	$16, %esp
	ret
	.cfi_endproc

	.def	 __Pshadow_Pstandard_Culong_Mcompare_Pshadow_Pstandard_Culong;
	.scl	2;
	.type	32;
	.endef
	.globl	__Pshadow_Pstandard_Culong_Mcompare_Pshadow_Pstandard_Culong
	.align	16, 0x90
__Pshadow_Pstandard_Culong_Mcompare_Pshadow_Pstandard_Culong: # @_Pshadow_Pstandard_Culong_Mcompare_Pshadow_Pstandard_Culong
	.cfi_startproc
# BB#0:
	pushl	%edi
Ltmp351:
	.cfi_def_cfa_offset 8
	pushl	%esi
Ltmp352:
	.cfi_def_cfa_offset 12
Ltmp353:
	.cfi_offset %esi, -12
Ltmp354:
	.cfi_offset %edi, -8
	movl	20(%esp), %edx
	movl	12(%esp), %eax
	cmpl	%edx, %eax
	setb	%cl
	movl	24(%esp), %edi
	movl	16(%esp), %esi
	cmpl	%edi, %esi
	setb	%ch
	je	LBB100_2
# BB#1:
	movb	%ch, %cl
LBB100_2:
	xorl	%edi, %esi
	xorl	%edx, %eax
	orl	%esi, %eax
	setne	%al
	movzbl	%al, %edx
	movl	$-1, %eax
	testb	%cl, %cl
	cmovel	%edx, %eax
	popl	%esi
	popl	%edi
	ret
	.cfi_endproc

	.def	 __Pshadow_Pstandard_Cfloat_Madd_Pshadow_Pstandard_Cfloat;
	.scl	2;
	.type	32;
	.endef
	.globl	__Pshadow_Pstandard_Cfloat_Madd_Pshadow_Pstandard_Cfloat
	.align	16, 0x90
__Pshadow_Pstandard_Cfloat_Madd_Pshadow_Pstandard_Cfloat: # @_Pshadow_Pstandard_Cfloat_Madd_Pshadow_Pstandard_Cfloat
	.cfi_startproc
# BB#0:
	pushl	%eax
Ltmp356:
	.cfi_def_cfa_offset 8
	movss	8(%esp), %xmm0
	addss	12(%esp), %xmm0
	movss	%xmm0, (%esp)
	flds	(%esp)
	popl	%eax
	ret
	.cfi_endproc

	.def	 __Pshadow_Pstandard_Cfloat_Msubtract_Pshadow_Pstandard_Cfloat;
	.scl	2;
	.type	32;
	.endef
	.globl	__Pshadow_Pstandard_Cfloat_Msubtract_Pshadow_Pstandard_Cfloat
	.align	16, 0x90
__Pshadow_Pstandard_Cfloat_Msubtract_Pshadow_Pstandard_Cfloat: # @_Pshadow_Pstandard_Cfloat_Msubtract_Pshadow_Pstandard_Cfloat
	.cfi_startproc
# BB#0:
	pushl	%eax
Ltmp358:
	.cfi_def_cfa_offset 8
	movss	8(%esp), %xmm0
	subss	12(%esp), %xmm0
	movss	%xmm0, (%esp)
	flds	(%esp)
	popl	%eax
	ret
	.cfi_endproc

	.def	 __Pshadow_Pstandard_Cfloat_Mmultiply_Pshadow_Pstandard_Cfloat;
	.scl	2;
	.type	32;
	.endef
	.globl	__Pshadow_Pstandard_Cfloat_Mmultiply_Pshadow_Pstandard_Cfloat
	.align	16, 0x90
__Pshadow_Pstandard_Cfloat_Mmultiply_Pshadow_Pstandard_Cfloat: # @_Pshadow_Pstandard_Cfloat_Mmultiply_Pshadow_Pstandard_Cfloat
	.cfi_startproc
# BB#0:
	pushl	%eax
Ltmp360:
	.cfi_def_cfa_offset 8
	movss	8(%esp), %xmm0
	mulss	12(%esp), %xmm0
	movss	%xmm0, (%esp)
	flds	(%esp)
	popl	%eax
	ret
	.cfi_endproc

	.def	 __Pshadow_Pstandard_Cfloat_Mdivide_Pshadow_Pstandard_Cfloat;
	.scl	2;
	.type	32;
	.endef
	.globl	__Pshadow_Pstandard_Cfloat_Mdivide_Pshadow_Pstandard_Cfloat
	.align	16, 0x90
__Pshadow_Pstandard_Cfloat_Mdivide_Pshadow_Pstandard_Cfloat: # @_Pshadow_Pstandard_Cfloat_Mdivide_Pshadow_Pstandard_Cfloat
	.cfi_startproc
# BB#0:
	pushl	%eax
Ltmp362:
	.cfi_def_cfa_offset 8
	movss	8(%esp), %xmm0
	divss	12(%esp), %xmm0
	movss	%xmm0, (%esp)
	flds	(%esp)
	popl	%eax
	ret
	.cfi_endproc

	.def	 __Pshadow_Pstandard_Cfloat_Mmodulus_Pshadow_Pstandard_Cfloat;
	.scl	2;
	.type	32;
	.endef
	.globl	__Pshadow_Pstandard_Cfloat_Mmodulus_Pshadow_Pstandard_Cfloat
	.align	16, 0x90
__Pshadow_Pstandard_Cfloat_Mmodulus_Pshadow_Pstandard_Cfloat: # @_Pshadow_Pstandard_Cfloat_Mmodulus_Pshadow_Pstandard_Cfloat
	.cfi_startproc
# BB#0:
	jmp	_fmodf                  # TAILCALL
	.cfi_endproc

	.def	 __Pshadow_Pstandard_Cfloat_Mcompare_Pshadow_Pstandard_Cfloat;
	.scl	2;
	.type	32;
	.endef
	.globl	__Pshadow_Pstandard_Cfloat_Mcompare_Pshadow_Pstandard_Cfloat
	.align	16, 0x90
__Pshadow_Pstandard_Cfloat_Mcompare_Pshadow_Pstandard_Cfloat: # @_Pshadow_Pstandard_Cfloat_Mcompare_Pshadow_Pstandard_Cfloat
	.cfi_startproc
# BB#0:
	movss	8(%esp), %xmm0
	movss	4(%esp), %xmm1
	movaps	%xmm1, %xmm2
	cmpneqss	%xmm0, %xmm2
	movd	%xmm2, %ecx
	andl	$1, %ecx
	movl	$-1, %eax
	ucomiss	%xmm1, %xmm0
	cmovbel	%ecx, %eax
	ret
	.cfi_endproc

	.def	 __Pshadow_Pstandard_Cdouble_Madd_Pshadow_Pstandard_Cdouble;
	.scl	2;
	.type	32;
	.endef
	.globl	__Pshadow_Pstandard_Cdouble_Madd_Pshadow_Pstandard_Cdouble
	.align	16, 0x90
__Pshadow_Pstandard_Cdouble_Madd_Pshadow_Pstandard_Cdouble: # @_Pshadow_Pstandard_Cdouble_Madd_Pshadow_Pstandard_Cdouble
	.cfi_startproc
# BB#0:
	pushl	%ebp
Ltmp365:
	.cfi_def_cfa_offset 8
Ltmp366:
	.cfi_offset %ebp, -8
	movl	%esp, %ebp
Ltmp367:
	.cfi_def_cfa_register %ebp
	andl	$-8, %esp
	subl	$8, %esp
	movsd	8(%ebp), %xmm0
	addsd	16(%ebp), %xmm0
	movsd	%xmm0, (%esp)
	fldl	(%esp)
	movl	%ebp, %esp
	popl	%ebp
	ret
	.cfi_endproc

	.def	 __Pshadow_Pstandard_Cdouble_Msubtract_Pshadow_Pstandard_Cdouble;
	.scl	2;
	.type	32;
	.endef
	.globl	__Pshadow_Pstandard_Cdouble_Msubtract_Pshadow_Pstandard_Cdouble
	.align	16, 0x90
__Pshadow_Pstandard_Cdouble_Msubtract_Pshadow_Pstandard_Cdouble: # @_Pshadow_Pstandard_Cdouble_Msubtract_Pshadow_Pstandard_Cdouble
	.cfi_startproc
# BB#0:
	pushl	%ebp
Ltmp370:
	.cfi_def_cfa_offset 8
Ltmp371:
	.cfi_offset %ebp, -8
	movl	%esp, %ebp
Ltmp372:
	.cfi_def_cfa_register %ebp
	andl	$-8, %esp
	subl	$8, %esp
	movsd	8(%ebp), %xmm0
	subsd	16(%ebp), %xmm0
	movsd	%xmm0, (%esp)
	fldl	(%esp)
	movl	%ebp, %esp
	popl	%ebp
	ret
	.cfi_endproc

	.def	 __Pshadow_Pstandard_Cdouble_Mmultiply_Pshadow_Pstandard_Cdouble;
	.scl	2;
	.type	32;
	.endef
	.globl	__Pshadow_Pstandard_Cdouble_Mmultiply_Pshadow_Pstandard_Cdouble
	.align	16, 0x90
__Pshadow_Pstandard_Cdouble_Mmultiply_Pshadow_Pstandard_Cdouble: # @_Pshadow_Pstandard_Cdouble_Mmultiply_Pshadow_Pstandard_Cdouble
	.cfi_startproc
# BB#0:
	pushl	%ebp
Ltmp375:
	.cfi_def_cfa_offset 8
Ltmp376:
	.cfi_offset %ebp, -8
	movl	%esp, %ebp
Ltmp377:
	.cfi_def_cfa_register %ebp
	andl	$-8, %esp
	subl	$8, %esp
	movsd	8(%ebp), %xmm0
	mulsd	16(%ebp), %xmm0
	movsd	%xmm0, (%esp)
	fldl	(%esp)
	movl	%ebp, %esp
	popl	%ebp
	ret
	.cfi_endproc

	.def	 __Pshadow_Pstandard_Cdouble_Mdivide_Pshadow_Pstandard_Cdouble;
	.scl	2;
	.type	32;
	.endef
	.globl	__Pshadow_Pstandard_Cdouble_Mdivide_Pshadow_Pstandard_Cdouble
	.align	16, 0x90
__Pshadow_Pstandard_Cdouble_Mdivide_Pshadow_Pstandard_Cdouble: # @_Pshadow_Pstandard_Cdouble_Mdivide_Pshadow_Pstandard_Cdouble
	.cfi_startproc
# BB#0:
	pushl	%ebp
Ltmp380:
	.cfi_def_cfa_offset 8
Ltmp381:
	.cfi_offset %ebp, -8
	movl	%esp, %ebp
Ltmp382:
	.cfi_def_cfa_register %ebp
	andl	$-8, %esp
	subl	$8, %esp
	movsd	8(%ebp), %xmm0
	divsd	16(%ebp), %xmm0
	movsd	%xmm0, (%esp)
	fldl	(%esp)
	movl	%ebp, %esp
	popl	%ebp
	ret
	.cfi_endproc

	.def	 __Pshadow_Pstandard_Cdouble_Mmodulus_Pshadow_Pstandard_Cdouble;
	.scl	2;
	.type	32;
	.endef
	.globl	__Pshadow_Pstandard_Cdouble_Mmodulus_Pshadow_Pstandard_Cdouble
	.align	16, 0x90
__Pshadow_Pstandard_Cdouble_Mmodulus_Pshadow_Pstandard_Cdouble: # @_Pshadow_Pstandard_Cdouble_Mmodulus_Pshadow_Pstandard_Cdouble
	.cfi_startproc
# BB#0:
	jmp	_fmod                   # TAILCALL
	.cfi_endproc

	.def	 __Pshadow_Pstandard_Cdouble_Mcompare_Pshadow_Pstandard_Cdouble;
	.scl	2;
	.type	32;
	.endef
	.globl	__Pshadow_Pstandard_Cdouble_Mcompare_Pshadow_Pstandard_Cdouble
	.align	16, 0x90
__Pshadow_Pstandard_Cdouble_Mcompare_Pshadow_Pstandard_Cdouble: # @_Pshadow_Pstandard_Cdouble_Mcompare_Pshadow_Pstandard_Cdouble
	.cfi_startproc
# BB#0:
	pushl	%ebp
Ltmp385:
	.cfi_def_cfa_offset 8
Ltmp386:
	.cfi_offset %ebp, -8
	movl	%esp, %ebp
Ltmp387:
	.cfi_def_cfa_register %ebp
	movsd	16(%ebp), %xmm0
	movsd	8(%ebp), %xmm1
	movapd	%xmm1, %xmm2
	cmpneqsd	%xmm0, %xmm2
	movd	%xmm2, %ecx
	andl	$1, %ecx
	movl	$-1, %eax
	ucomisd	%xmm1, %xmm0
	cmovbel	%ecx, %eax
	popl	%ebp
	ret
	.cfi_endproc

	.def	 __Pshadow_Pstandard_CObject_Mequals_Pshadow_Pstandard_CObject;
	.scl	2;
	.type	32;
	.endef
	.globl	__Pshadow_Pstandard_CObject_Mequals_Pshadow_Pstandard_CObject
	.align	16, 0x90
__Pshadow_Pstandard_CObject_Mequals_Pshadow_Pstandard_CObject: # @_Pshadow_Pstandard_CObject_Mequals_Pshadow_Pstandard_CObject
	.cfi_startproc
# BB#0:
	subl	$8, %esp
Ltmp389:
	.cfi_def_cfa_offset 12
	movl	12(%esp), %eax
	movl	%eax, 4(%esp)
	movl	16(%esp), %eax
	movl	%eax, (%esp)
	cmpl	%eax, 4(%esp)
	sete	%al
	addl	$8, %esp
	ret
	.cfi_endproc

	.def	 __Pshadow_Pstandard_CObject_MtoString;
	.scl	2;
	.type	32;
	.endef
	.globl	__Pshadow_Pstandard_CObject_MtoString
	.align	16, 0x90
__Pshadow_Pstandard_CObject_MtoString:  # @_Pshadow_Pstandard_CObject_MtoString
	.cfi_startproc
# BB#0:
	subl	$8, %esp
Ltmp391:
	.cfi_def_cfa_offset 12
	movl	12(%esp), %eax
	movl	%eax, 4(%esp)
	movl	(%eax), %ecx
	movl	%eax, (%esp)
	calll	*52(%ecx)
	movl	%eax, (%esp)
	calll	__Pshadow_Pstandard_CClass_MtoString
	addl	$8, %esp
	ret
	.cfi_endproc

	.def	 __Pshadow_Pstandard_CObject_Mcreate;
	.scl	2;
	.type	32;
	.endef
	.globl	__Pshadow_Pstandard_CObject_Mcreate
	.align	16, 0x90
__Pshadow_Pstandard_CObject_Mcreate:    # @_Pshadow_Pstandard_CObject_Mcreate
	.cfi_startproc
# BB#0:
	pushl	%eax
Ltmp393:
	.cfi_def_cfa_offset 8
	movl	8(%esp), %eax
	movl	%eax, (%esp)
	movl	$__Pshadow_Pstandard_CObject_Mclass, (%eax)
	popl	%edx
	ret
	.cfi_endproc

	.def	 __Pshadow_Pstandard_CObject_MreferenceEquals_Pshadow_Pstandard_CObject;
	.scl	2;
	.type	32;
	.endef
	.globl	__Pshadow_Pstandard_CObject_MreferenceEquals_Pshadow_Pstandard_CObject
	.align	16, 0x90
__Pshadow_Pstandard_CObject_MreferenceEquals_Pshadow_Pstandard_CObject: # @_Pshadow_Pstandard_CObject_MreferenceEquals_Pshadow_Pstandard_CObject
	.cfi_startproc
# BB#0:
	movl	4(%esp), %eax
	cmpl	8(%esp), %eax
	sete	%al
	ret
	.cfi_endproc

	.def	 __Pshadow_Pstandard_CObject_MgetClass;
	.scl	2;
	.type	32;
	.endef
	.globl	__Pshadow_Pstandard_CObject_MgetClass
	.align	16, 0x90
__Pshadow_Pstandard_CObject_MgetClass:  # @_Pshadow_Pstandard_CObject_MgetClass
	.cfi_startproc
# BB#0:
	movl	4(%esp), %eax
	movl	(%eax), %eax
	ret
	.cfi_endproc

	.def	 __Pshadow_Pstandard_CObject_Mcopy;
	.scl	2;
	.type	32;
	.endef
	.globl	__Pshadow_Pstandard_CObject_Mcopy
	.align	16, 0x90
__Pshadow_Pstandard_CObject_Mcopy:      # @_Pshadow_Pstandard_CObject_Mcopy
	.cfi_startproc
# BB#0:
	movl	4(%esp), %eax
	ret
	.cfi_endproc

	.def	 __Pshadow_Pstandard_CObject_Mfreeze;
	.scl	2;
	.type	32;
	.endef
	.globl	__Pshadow_Pstandard_CObject_Mfreeze
	.align	16, 0x90
__Pshadow_Pstandard_CObject_Mfreeze:    # @_Pshadow_Pstandard_CObject_Mfreeze
	.cfi_startproc
# BB#0:
	movl	4(%esp), %eax
	ret
	.cfi_endproc

	.def	 __Pshadow_Pstandard_CReference_Mvalue;
	.scl	2;
	.type	32;
	.endef
	.globl	__Pshadow_Pstandard_CReference_Mvalue
	.align	16, 0x90
__Pshadow_Pstandard_CReference_Mvalue:  # @_Pshadow_Pstandard_CReference_Mvalue
	.cfi_startproc
# BB#0:
	pushl	%eax
Ltmp395:
	.cfi_def_cfa_offset 8
	movl	8(%esp), %eax
	movl	%eax, (%esp)
	movl	8(%eax), %eax
	popl	%edx
	ret
	.cfi_endproc

	.def	 __Pshadow_Pstandard_CReference_Mvalue_CT;
	.scl	2;
	.type	32;
	.endef
	.globl	__Pshadow_Pstandard_CReference_Mvalue_CT
	.align	16, 0x90
__Pshadow_Pstandard_CReference_Mvalue_CT: # @_Pshadow_Pstandard_CReference_Mvalue_CT
	.cfi_startproc
# BB#0:
	subl	$8, %esp
Ltmp397:
	.cfi_def_cfa_offset 12
	movl	12(%esp), %eax
	movl	%eax, 4(%esp)
	movl	16(%esp), %eax
	movl	%eax, (%esp)
	movl	4(%esp), %ecx
	movl	%eax, 8(%ecx)
	addl	$8, %esp
	ret
	.cfi_endproc

	.def	 __Pshadow_Pstandard_CReference_MtoString;
	.scl	2;
	.type	32;
	.endef
	.globl	__Pshadow_Pstandard_CReference_MtoString
	.align	16, 0x90
__Pshadow_Pstandard_CReference_MtoString: # @_Pshadow_Pstandard_CReference_MtoString
	.cfi_startproc
# BB#0:
	subl	$12, %esp
Ltmp399:
	.cfi_def_cfa_offset 16
	movl	16(%esp), %eax
	movl	%eax, 8(%esp)
	cmpl	$0, 8(%eax)
	je	LBB122_1
# BB#2:                                 # %_label1
	movl	8(%eax), %eax
	movl	(%eax), %ecx
	movl	%eax, (%esp)
	calll	*56(%ecx)
	movl	%eax, 4(%esp)
	jmp	LBB122_3
LBB122_1:                               # %_label0
	movl	$L__string1230, 4(%esp)
LBB122_3:                               # %_label2
	movl	4(%esp), %eax
	addl	$12, %esp
	ret
	.cfi_endproc

	.def	 __Pshadow_Pstandard_CReference_Mcreate;
	.scl	2;
	.type	32;
	.endef
	.globl	__Pshadow_Pstandard_CReference_Mcreate
	.align	16, 0x90
__Pshadow_Pstandard_CReference_Mcreate: # @_Pshadow_Pstandard_CReference_Mcreate
	.cfi_startproc
# BB#0:
	pushl	%esi
Ltmp402:
	.cfi_def_cfa_offset 8
	subl	$12, %esp
Ltmp403:
	.cfi_def_cfa_offset 20
Ltmp404:
	.cfi_offset %esi, -8
	movl	20(%esp), %esi
	movl	%esi, 8(%esp)
	movl	24(%esp), %eax
	movl	%eax, 4(%esp)
	movl	8(%esp), %eax
	movl	%eax, (%esp)
	calll	__Pshadow_Pstandard_CObject_Mcreate
	movl	$__Pshadow_Pstandard_CReference_Mclass, (%esi)
	movl	4(%esp), %eax
	movl	8(%esp), %ecx
	movl	%eax, 4(%ecx)
	movl	8(%esp), %eax
	movl	$0, 8(%eax)
	movl	%esi, %eax
	addl	$12, %esp
	popl	%esi
	ret
	.cfi_endproc

	.def	 __Pshadow_Pstandard_CReference_Mcreate_CT;
	.scl	2;
	.type	32;
	.endef
	.globl	__Pshadow_Pstandard_CReference_Mcreate_CT
	.align	16, 0x90
__Pshadow_Pstandard_CReference_Mcreate_CT: # @_Pshadow_Pstandard_CReference_Mcreate_CT
	.cfi_startproc
# BB#0:
	pushl	%esi
Ltmp407:
	.cfi_def_cfa_offset 8
	subl	$16, %esp
Ltmp408:
	.cfi_def_cfa_offset 24
Ltmp409:
	.cfi_offset %esi, -8
	movl	24(%esp), %esi
	movl	%esi, 12(%esp)
	movl	28(%esp), %eax
	movl	%eax, 8(%esp)
	movl	32(%esp), %eax
	movl	%eax, 4(%esp)
	movl	12(%esp), %eax
	movl	%eax, (%esp)
	calll	__Pshadow_Pstandard_CObject_Mcreate
	movl	$__Pshadow_Pstandard_CReference_Mclass, (%esi)
	movl	8(%esp), %eax
	movl	12(%esp), %ecx
	movl	%eax, 4(%ecx)
	movl	12(%esp), %eax
	movl	$0, 8(%eax)
	movl	4(%esp), %eax
	movl	12(%esp), %ecx
	movl	%eax, 8(%ecx)
	movl	%esi, %eax
	addl	$16, %esp
	popl	%esi
	ret
	.cfi_endproc

	.def	 __Pshadow_Pstandard_CString_IStringIterator_MhasNext;
	.scl	2;
	.type	32;
	.endef
	.globl	__Pshadow_Pstandard_CString_IStringIterator_MhasNext
	.align	16, 0x90
__Pshadow_Pstandard_CString_IStringIterator_MhasNext: # @_Pshadow_Pstandard_CString_IStringIterator_MhasNext
	.cfi_startproc
# BB#0:
	pushl	%ebp
Ltmp415:
	.cfi_def_cfa_offset 8
	pushl	%ebx
Ltmp416:
	.cfi_def_cfa_offset 12
	pushl	%edi
Ltmp417:
	.cfi_def_cfa_offset 16
	pushl	%esi
Ltmp418:
	.cfi_def_cfa_offset 20
	subl	$28, %esp
Ltmp419:
	.cfi_def_cfa_offset 48
Ltmp420:
	.cfi_offset %esi, -20
Ltmp421:
	.cfi_offset %edi, -16
Ltmp422:
	.cfi_offset %ebx, -12
Ltmp423:
	.cfi_offset %ebp, -8
	movl	48(%esp), %eax
	movl	%eax, 24(%esp)
	movl	4(%eax), %ecx
	movl	8(%eax), %eax
	movl	%eax, 20(%esp)          # 4-byte Spill
	movl	4(%ecx), %ebx
	movl	8(%ecx), %ebp
	movl	$1, 4(%esp)
	movl	$__Pshadow_Pstandard_Cint_Mclass, (%esp)
	calll	__Pshadow_Pstandard_CClass_Mallocate_Pshadow_Pstandard_Cint
	movl	%eax, %esi
	movl	%ebp, (%esi)
	movl	$__Pshadow_Pstandard_CArray_Mclass, (%esp)
	calll	__Pshadow_Pstandard_CClass_Mallocate
	movl	%ebx, 16(%esp)
	movl	%esi, 8(%esp)
	movl	%eax, (%esp)
	movl	$1, 12(%esp)
	movl	$__Pshadow_Pstandard_Cbyte_Mclass, 4(%esp)
	calll	__Pshadow_Pstandard_CArray_Mcreate_Pshadow_Pstandard_Cint_A1_Pshadow_Pstandard_CObject
	movl	(%eax), %eax
	movl	84(%eax), %edi
	movl	$1, 4(%esp)
	movl	$__Pshadow_Pstandard_Cint_Mclass, (%esp)
	calll	__Pshadow_Pstandard_CClass_Mallocate_Pshadow_Pstandard_Cint
	movl	%eax, %esi
	movl	%ebp, (%esi)
	movl	$__Pshadow_Pstandard_CArray_Mclass, (%esp)
	calll	__Pshadow_Pstandard_CClass_Mallocate
	movl	%ebx, 16(%esp)
	movl	%esi, 8(%esp)
	movl	%eax, (%esp)
	movl	$1, 12(%esp)
	movl	$__Pshadow_Pstandard_Cbyte_Mclass, 4(%esp)
	calll	__Pshadow_Pstandard_CArray_Mcreate_Pshadow_Pstandard_Cint_A1_Pshadow_Pstandard_CObject
	movl	%eax, (%esp)
	calll	*%edi
	cmpl	%eax, 20(%esp)          # 4-byte Folded Reload
	setl	%al
	addl	$28, %esp
	popl	%esi
	popl	%edi
	popl	%ebx
	popl	%ebp
	ret
	.cfi_endproc

	.def	 __Pshadow_Pstandard_CString_IStringIterator_Mnext;
	.scl	2;
	.type	32;
	.endef
	.globl	__Pshadow_Pstandard_CString_IStringIterator_Mnext
	.align	16, 0x90
__Pshadow_Pstandard_CString_IStringIterator_Mnext: # @_Pshadow_Pstandard_CString_IStringIterator_Mnext
	.cfi_startproc
# BB#0:
	subl	$16, %esp
Ltmp425:
	.cfi_def_cfa_offset 20
	movl	20(%esp), %eax
	movl	%eax, 12(%esp)
	movl	4(%eax), %ecx
	movl	8(%eax), %eax
	movl	4(%ecx), %ecx
	movsbl	(%ecx,%eax), %eax
	movl	%eax, 8(%esp)
	testl	%eax, %eax
	jns	LBB126_7
# BB#1:                                 # %_label0
	movl	$0, 4(%esp)
	movb	$-64, 3(%esp)
	jmp	LBB126_3
	.align	16, 0x90
LBB126_2:                               # %_label3
                                        #   in Loop: Header=BB126_3 Depth=1
	incl	4(%esp)
	sarb	3(%esp)
LBB126_3:                               # %_label4
                                        # =>This Inner Loop Header: Depth=1
	movsbl	3(%esp), %eax
	cmpl	%eax, 8(%esp)
	jge	LBB126_2
# BB#4:                                 # %_label5
	movsbl	3(%esp), %eax
	notl	%eax
	andl	%eax, 8(%esp)
	jmp	LBB126_6
	.align	16, 0x90
LBB126_5:                               # %_label6
                                        #   in Loop: Header=BB126_6 Depth=1
	movl	12(%esp), %eax
	incl	8(%eax)
	movl	8(%esp), %eax
	shll	$6, %eax
	movl	%eax, 8(%esp)
	movl	12(%esp), %ecx
	movl	4(%ecx), %edx
	movl	8(%ecx), %ecx
	movl	4(%edx), %edx
	movzbl	(%edx,%ecx), %ecx
	andl	$63, %ecx
	orl	%eax, %ecx
	movl	%ecx, 8(%esp)
	decl	4(%esp)
LBB126_6:                               # %_label7
                                        # =>This Inner Loop Header: Depth=1
	cmpl	$0, 4(%esp)
	jg	LBB126_5
LBB126_7:                               # %_label2
	movl	12(%esp), %eax
	incl	8(%eax)
	movl	8(%esp), %eax
	addl	$16, %esp
	ret
	.cfi_endproc

	.def	 __Pshadow_Pstandard_CString_IStringIterator_Mcreate;
	.scl	2;
	.type	32;
	.endef
	.globl	__Pshadow_Pstandard_CString_IStringIterator_Mcreate
	.align	16, 0x90
__Pshadow_Pstandard_CString_IStringIterator_Mcreate: # @_Pshadow_Pstandard_CString_IStringIterator_Mcreate
	.cfi_startproc
# BB#0:
	pushl	%esi
Ltmp428:
	.cfi_def_cfa_offset 8
	subl	$12, %esp
Ltmp429:
	.cfi_def_cfa_offset 20
Ltmp430:
	.cfi_offset %esi, -8
	movl	20(%esp), %esi
	movl	%esi, 8(%esp)
	movl	24(%esp), %eax
	movl	%eax, 4(%esp)
	movl	8(%esp), %eax
	movl	%eax, (%esp)
	calll	__Pshadow_Pstandard_CObject_Mcreate
	movl	$__Pshadow_Pstandard_CString_IStringIterator_Mclass, (%esi)
	movl	4(%esp), %eax
	movl	8(%esp), %ecx
	movl	%eax, 4(%ecx)
	movl	8(%esp), %eax
	movl	$0, 8(%eax)
	movl	%esi, %eax
	addl	$12, %esp
	popl	%esi
	ret
	.cfi_endproc

	.def	 __Pshadow_Pstandard_CString_Miterator;
	.scl	2;
	.type	32;
	.endef
	.globl	__Pshadow_Pstandard_CString_Miterator
	.align	16, 0x90
__Pshadow_Pstandard_CString_Miterator:  # @_Pshadow_Pstandard_CString_Miterator
	.cfi_startproc
# BB#0:
	pushl	%esi
Ltmp433:
	.cfi_def_cfa_offset 8
	subl	$12, %esp
Ltmp434:
	.cfi_def_cfa_offset 20
Ltmp435:
	.cfi_offset %esi, -8
	movl	20(%esp), %eax
	movl	%eax, 8(%esp)
	movl	$__Pshadow_Pstandard_CString_IStringIterator_Mclass, (%esp)
	calll	__Pshadow_Pstandard_CClass_Mallocate
	movl	%eax, %esi
	movl	8(%esp), %eax
	movl	%eax, 4(%esp)
	movl	%esi, (%esp)
	calll	__Pshadow_Pstandard_CString_IStringIterator_Mcreate
	movl	%esi, %eax
	addl	$12, %esp
	popl	%esi
	ret
	.cfi_endproc

	.def	 __Pshadow_Pstandard_CString_Mequals_Pshadow_Pstandard_CString;
	.scl	2;
	.type	32;
	.endef
	.globl	__Pshadow_Pstandard_CString_Mequals_Pshadow_Pstandard_CString
	.align	16, 0x90
__Pshadow_Pstandard_CString_Mequals_Pshadow_Pstandard_CString: # @_Pshadow_Pstandard_CString_Mequals_Pshadow_Pstandard_CString
	.cfi_startproc
# BB#0:
	pushl	%edi
Ltmp439:
	.cfi_def_cfa_offset 8
	pushl	%esi
Ltmp440:
	.cfi_def_cfa_offset 12
	subl	$20, %esp
Ltmp441:
	.cfi_def_cfa_offset 32
Ltmp442:
	.cfi_offset %esi, -12
Ltmp443:
	.cfi_offset %edi, -8
	movl	32(%esp), %eax
	movl	%eax, 16(%esp)
	movl	36(%esp), %edi
	movl	%edi, 12(%esp)
	movl	16(%esp), %eax
	movl	%eax, (%esp)
	calll	__Pshadow_Pstandard_CString_Msize
	movl	%eax, %esi
	movl	%edi, (%esp)
	calll	__Pshadow_Pstandard_CString_Msize
	cmpl	%eax, %esi
	setne	11(%esp)
	je	LBB129_2
# BB#1:                                 # %_label1
	movl	16(%esp), %eax
	movl	12(%esp), %ecx
	movl	%ecx, 4(%esp)
	movl	%eax, (%esp)
	calll	__Pshadow_Pstandard_CString_Mcompare_Pshadow_Pstandard_CString
	testl	%eax, %eax
	sete	11(%esp)
LBB129_2:                               # %_label0
	movb	11(%esp), %al
	addl	$20, %esp
	popl	%esi
	popl	%edi
	ret
	.cfi_endproc

	.def	 __Pshadow_Pstandard_CString_Mcompare_Pshadow_Pstandard_CString;
	.scl	2;
	.type	32;
	.endef
	.globl	__Pshadow_Pstandard_CString_Mcompare_Pshadow_Pstandard_CString
	.align	16, 0x90
__Pshadow_Pstandard_CString_Mcompare_Pshadow_Pstandard_CString: # @_Pshadow_Pstandard_CString_Mcompare_Pshadow_Pstandard_CString
	.cfi_startproc
# BB#0:
	pushl	%ebx
Ltmp448:
	.cfi_def_cfa_offset 8
	pushl	%edi
Ltmp449:
	.cfi_def_cfa_offset 12
	pushl	%esi
Ltmp450:
	.cfi_def_cfa_offset 16
	subl	$24, %esp
Ltmp451:
	.cfi_def_cfa_offset 40
Ltmp452:
	.cfi_offset %esi, -16
Ltmp453:
	.cfi_offset %edi, -12
Ltmp454:
	.cfi_offset %ebx, -8
	movl	40(%esp), %eax
	movl	%eax, 20(%esp)
	movl	44(%esp), %eax
	movl	%eax, 16(%esp)
	movl	$0, 12(%esp)
	jmp	LBB130_4
	.align	16, 0x90
LBB130_3:                               # %_label7
                                        #   in Loop: Header=BB130_4 Depth=1
	incl	12(%esp)
LBB130_4:                               # %_label3
                                        # =>This Inner Loop Header: Depth=1
	movl	12(%esp), %esi
	movl	20(%esp), %eax
	movl	%eax, (%esp)
	calll	__Pshadow_Pstandard_CString_Msize
	cmpl	%eax, %esi
	setl	11(%esp)
	jge	LBB130_6
# BB#5:                                 # %_label9
                                        #   in Loop: Header=BB130_4 Depth=1
	movl	12(%esp), %esi
	movl	16(%esp), %eax
	movl	%eax, (%esp)
	calll	__Pshadow_Pstandard_CString_Msize
	cmpl	%eax, %esi
	setl	11(%esp)
LBB130_6:                               # %_label8
                                        #   in Loop: Header=BB130_4 Depth=1
	movb	11(%esp), %al
	testb	%al, %al
	je	LBB130_7
# BB#1:                                 # %_label2
                                        #   in Loop: Header=BB130_4 Depth=1
	movl	20(%esp), %eax
	movl	12(%esp), %ecx
	movl	%ecx, 4(%esp)
	movl	%eax, (%esp)
	calll	__Pshadow_Pstandard_CString_MgetChar_Pshadow_Pstandard_Cint
	movb	%al, %bl
	movl	16(%esp), %eax
	movl	12(%esp), %ecx
	movl	%ecx, 4(%esp)
	movl	%eax, (%esp)
	calll	__Pshadow_Pstandard_CString_MgetChar_Pshadow_Pstandard_Cint
	cmpb	%al, %bl
	je	LBB130_3
# BB#2:                                 # %_label5
	movl	20(%esp), %eax
	movl	12(%esp), %ecx
	movl	%ecx, 4(%esp)
	movl	%eax, (%esp)
	calll	__Pshadow_Pstandard_CString_MgetChar_Pshadow_Pstandard_Cint
	movb	%al, %bl
	movl	16(%esp), %eax
	movl	12(%esp), %ecx
	movl	%ecx, 4(%esp)
	movl	%eax, (%esp)
	calll	__Pshadow_Pstandard_CString_MgetChar_Pshadow_Pstandard_Cint
	subb	%al, %bl
	movsbl	%bl, %eax
	jmp	LBB130_8
LBB130_7:                               # %_label4
	movl	16(%esp), %edi
	movl	20(%esp), %eax
	movl	%eax, (%esp)
	calll	__Pshadow_Pstandard_CString_Msize
	movl	%eax, %esi
	movl	%edi, (%esp)
	calll	__Pshadow_Pstandard_CString_Msize
	subl	%eax, %esi
	movl	%esi, %eax
LBB130_8:                               # %_label4
	addl	$24, %esp
	popl	%esi
	popl	%edi
	popl	%ebx
	ret
	.cfi_endproc

	.def	 __Pshadow_Pstandard_CString_Mcreate;
	.scl	2;
	.type	32;
	.endef
	.globl	__Pshadow_Pstandard_CString_Mcreate
	.align	16, 0x90
__Pshadow_Pstandard_CString_Mcreate:    # @_Pshadow_Pstandard_CString_Mcreate
	.cfi_startproc
# BB#0:
	pushl	%edi
Ltmp458:
	.cfi_def_cfa_offset 8
	pushl	%esi
Ltmp459:
	.cfi_def_cfa_offset 12
	subl	$12, %esp
Ltmp460:
	.cfi_def_cfa_offset 24
Ltmp461:
	.cfi_offset %esi, -12
Ltmp462:
	.cfi_offset %edi, -8
	movl	24(%esp), %esi
	movl	%esi, 8(%esp)
	movl	%esi, (%esp)
	calll	__Pshadow_Pstandard_CObject_Mcreate
	movl	$__Pshadow_Pstandard_CString_Mclass, (%esi)
	movl	8(%esp), %eax
	movb	$1, 12(%eax)
	movl	8(%esp), %edi
	movl	$0, 4(%esp)
	movl	$__Pshadow_Pstandard_Cbyte_Mclass, (%esp)
	calll	__Pshadow_Pstandard_CClass_Mallocate_Pshadow_Pstandard_Cint
	movl	%eax, 4(%edi)
	movl	$0, 8(%edi)
	movl	%esi, %eax
	addl	$12, %esp
	popl	%esi
	popl	%edi
	ret
	.cfi_endproc

	.def	 __Pshadow_Pstandard_CString_Mcreate_Pshadow_Pstandard_Cbyte_A1;
	.scl	2;
	.type	32;
	.endef
	.globl	__Pshadow_Pstandard_CString_Mcreate_Pshadow_Pstandard_Cbyte_A1
	.align	16, 0x90
__Pshadow_Pstandard_CString_Mcreate_Pshadow_Pstandard_Cbyte_A1: # @_Pshadow_Pstandard_CString_Mcreate_Pshadow_Pstandard_Cbyte_A1
	.cfi_startproc
# BB#0:
	pushl	%ebp
Ltmp466:
	.cfi_def_cfa_offset 8
Ltmp467:
	.cfi_offset %ebp, -8
	movl	%esp, %ebp
Ltmp468:
	.cfi_def_cfa_register %ebp
	pushl	%ebx
	pushl	%edi
	pushl	%esi
	andl	$-8, %esp
	subl	$56, %esp
Ltmp469:
	.cfi_offset %esi, -20
Ltmp470:
	.cfi_offset %edi, -16
Ltmp471:
	.cfi_offset %ebx, -12
	movl	8(%ebp), %esi
	movl	%esi, 48(%esp)
	movl	16(%ebp), %eax
	movl	%eax, 44(%esp)
	movl	12(%ebp), %eax
	movl	%eax, 40(%esp)
	movl	48(%esp), %eax
	movl	%eax, (%esp)
	calll	__Pshadow_Pstandard_CObject_Mcreate
	movl	$__Pshadow_Pstandard_CString_Mclass, (%esi)
	movl	48(%esp), %eax
	movb	$1, 12(%eax)
	movl	48(%esp), %esi
	movl	$0, 4(%esp)
	movl	$__Pshadow_Pstandard_Cbyte_Mclass, (%esp)
	calll	__Pshadow_Pstandard_CClass_Mallocate_Pshadow_Pstandard_Cint
	movl	%eax, 4(%esi)
	movl	$0, 8(%esi)
	movb	$0, 39(%esp)
	movl	40(%esp), %ebx
	movl	44(%esp), %esi
	movl	$1, 4(%esp)
	movl	$__Pshadow_Pstandard_Cint_Mclass, (%esp)
	calll	__Pshadow_Pstandard_CClass_Mallocate_Pshadow_Pstandard_Cint
	movl	%eax, %edi
	movl	%esi, (%edi)
	movl	$__Pshadow_Pstandard_CArray_Mclass, (%esp)
	calll	__Pshadow_Pstandard_CClass_Mallocate
	movl	%ebx, 16(%esp)
	movl	%edi, 8(%esp)
	movl	%eax, (%esp)
	movl	$1, 12(%esp)
	movl	$__Pshadow_Pstandard_Cbyte_Mclass, 4(%esp)
	calll	__Pshadow_Pstandard_CArray_Mcreate_Pshadow_Pstandard_Cint_A1_Pshadow_Pstandard_CObject
	movl	(%eax), %eax
	movl	84(%eax), %eax
	movl	%eax, 28(%esp)          # 4-byte Spill
	movl	$1, 4(%esp)
	movl	$__Pshadow_Pstandard_Cint_Mclass, (%esp)
	calll	__Pshadow_Pstandard_CClass_Mallocate_Pshadow_Pstandard_Cint
	movl	%eax, %edi
	movl	%esi, (%edi)
	movl	$__Pshadow_Pstandard_CArray_Mclass, (%esp)
	calll	__Pshadow_Pstandard_CClass_Mallocate
	movl	%ebx, 16(%esp)
	movl	%edi, 8(%esp)
	movl	%eax, (%esp)
	movl	$1, 12(%esp)
	movl	$__Pshadow_Pstandard_Cbyte_Mclass, 4(%esp)
	calll	__Pshadow_Pstandard_CArray_Mcreate_Pshadow_Pstandard_Cint_A1_Pshadow_Pstandard_CObject
	movl	%eax, (%esp)
	calll	*28(%esp)               # 4-byte Folded Reload
	movl	%eax, %edi
	movl	%edi, 4(%esp)
	movl	$__Pshadow_Pstandard_Cbyte_Mclass, (%esp)
	calll	__Pshadow_Pstandard_CClass_Mallocate_Pshadow_Pstandard_Cint
	movl	48(%esp), %ecx
	movl	%edi, 8(%ecx)
	movl	%eax, 4(%ecx)
	movl	$0, 32(%esp)
	jmp	LBB132_2
	.align	16, 0x90
LBB132_1:                               # %_label10
                                        #   in Loop: Header=BB132_2 Depth=1
	movl	32(%esp), %eax
	movl	40(%esp), %ecx
	movb	(%ecx,%eax), %cl
	movl	48(%esp), %edx
	movl	4(%edx), %edx
	movb	%cl, (%edx,%eax)
	movl	32(%esp), %eax
	movl	40(%esp), %ecx
	movb	(%ecx,%eax), %al
	orb	%al, 39(%esp)
	incl	32(%esp)
LBB132_2:                               # %_label11
                                        # =>This Inner Loop Header: Depth=1
	movl	32(%esp), %eax
	movl	%eax, 28(%esp)          # 4-byte Spill
	movl	40(%esp), %esi
	movl	44(%esp), %ebx
	movl	$1, 4(%esp)
	movl	$__Pshadow_Pstandard_Cint_Mclass, (%esp)
	calll	__Pshadow_Pstandard_CClass_Mallocate_Pshadow_Pstandard_Cint
	movl	%eax, %edi
	movl	%ebx, (%edi)
	movl	$__Pshadow_Pstandard_CArray_Mclass, (%esp)
	calll	__Pshadow_Pstandard_CClass_Mallocate
	movl	%esi, 16(%esp)
	movl	%edi, 8(%esp)
	movl	%eax, (%esp)
	movl	$1, 12(%esp)
	movl	$__Pshadow_Pstandard_Cbyte_Mclass, 4(%esp)
	calll	__Pshadow_Pstandard_CArray_Mcreate_Pshadow_Pstandard_Cint_A1_Pshadow_Pstandard_CObject
	movl	(%eax), %eax
	movl	84(%eax), %eax
	movl	%eax, 24(%esp)          # 4-byte Spill
	movl	$1, 4(%esp)
	movl	$__Pshadow_Pstandard_Cint_Mclass, (%esp)
	calll	__Pshadow_Pstandard_CClass_Mallocate_Pshadow_Pstandard_Cint
	movl	%eax, %edi
	movl	%ebx, (%edi)
	movl	$__Pshadow_Pstandard_CArray_Mclass, (%esp)
	calll	__Pshadow_Pstandard_CClass_Mallocate
	movl	%esi, 16(%esp)
	movl	%edi, 8(%esp)
	movl	%eax, (%esp)
	movl	$1, 12(%esp)
	movl	$__Pshadow_Pstandard_Cbyte_Mclass, 4(%esp)
	calll	__Pshadow_Pstandard_CArray_Mcreate_Pshadow_Pstandard_Cint_A1_Pshadow_Pstandard_CObject
	movl	%eax, (%esp)
	calll	*24(%esp)               # 4-byte Folded Reload
	cmpl	%eax, 28(%esp)          # 4-byte Folded Reload
	jl	LBB132_1
# BB#3:                                 # %_label12
	movl	48(%esp), %eax
	movsbl	39(%esp), %ecx
	testl	%ecx, %ecx
	sets	12(%eax)
	movl	8(%ebp), %eax
	leal	-12(%ebp), %esp
	popl	%esi
	popl	%edi
	popl	%ebx
	popl	%ebp
	ret
	.cfi_endproc

	.def	 __Pshadow_Pstandard_CString_Mcreate_Pshadow_Pstandard_Ccode_A1;
	.scl	2;
	.type	32;
	.endef
	.globl	__Pshadow_Pstandard_CString_Mcreate_Pshadow_Pstandard_Ccode_A1
	.align	16, 0x90
__Pshadow_Pstandard_CString_Mcreate_Pshadow_Pstandard_Ccode_A1: # @_Pshadow_Pstandard_CString_Mcreate_Pshadow_Pstandard_Ccode_A1
	.cfi_startproc
# BB#0:
	pushl	%ebp
Ltmp475:
	.cfi_def_cfa_offset 8
Ltmp476:
	.cfi_offset %ebp, -8
	movl	%esp, %ebp
Ltmp477:
	.cfi_def_cfa_register %ebp
	pushl	%ebx
	pushl	%edi
	pushl	%esi
	andl	$-8, %esp
	subl	$64, %esp
Ltmp478:
	.cfi_offset %esi, -20
Ltmp479:
	.cfi_offset %edi, -16
Ltmp480:
	.cfi_offset %ebx, -12
	movl	8(%ebp), %esi
	movl	%esi, 56(%esp)
	movl	16(%ebp), %eax
	movl	%eax, 52(%esp)
	movl	12(%ebp), %eax
	movl	%eax, 48(%esp)
	movl	56(%esp), %eax
	movl	%eax, (%esp)
	calll	__Pshadow_Pstandard_CObject_Mcreate
	movl	$__Pshadow_Pstandard_CString_Mclass, (%esi)
	movl	56(%esp), %eax
	movb	$1, 12(%eax)
	movl	56(%esp), %esi
	movl	$0, 4(%esp)
	movl	$__Pshadow_Pstandard_Cbyte_Mclass, (%esp)
	calll	__Pshadow_Pstandard_CClass_Mallocate_Pshadow_Pstandard_Cint
	movl	%eax, 4(%esi)
	movl	$0, 8(%esi)
	movl	48(%esp), %esi
	movl	52(%esp), %ebx
	movl	$1, 4(%esp)
	movl	$__Pshadow_Pstandard_Cint_Mclass, (%esp)
	calll	__Pshadow_Pstandard_CClass_Mallocate_Pshadow_Pstandard_Cint
	movl	%eax, %edi
	movl	%ebx, (%edi)
	movl	$__Pshadow_Pstandard_CArray_Mclass, (%esp)
	calll	__Pshadow_Pstandard_CClass_Mallocate
	movl	%esi, 16(%esp)
	movl	%edi, 8(%esp)
	movl	%eax, (%esp)
	movl	$1, 12(%esp)
	movl	$__Pshadow_Pstandard_Ccode_Mclass, 4(%esp)
	calll	__Pshadow_Pstandard_CArray_Mcreate_Pshadow_Pstandard_Cint_A1_Pshadow_Pstandard_CObject
	movl	(%eax), %eax
	movl	84(%eax), %eax
	movl	%eax, 24(%esp)          # 4-byte Spill
	movl	$1, 4(%esp)
	movl	$__Pshadow_Pstandard_Cint_Mclass, (%esp)
	calll	__Pshadow_Pstandard_CClass_Mallocate_Pshadow_Pstandard_Cint
	movl	%eax, %edi
	movl	%ebx, (%edi)
	movl	$__Pshadow_Pstandard_CArray_Mclass, (%esp)
	calll	__Pshadow_Pstandard_CClass_Mallocate
	movl	%esi, 16(%esp)
	movl	%edi, 8(%esp)
	movl	%eax, (%esp)
	movl	$1, 12(%esp)
	movl	$__Pshadow_Pstandard_Ccode_Mclass, 4(%esp)
	calll	__Pshadow_Pstandard_CArray_Mcreate_Pshadow_Pstandard_Cint_A1_Pshadow_Pstandard_CObject
	movl	%eax, (%esp)
	calll	*24(%esp)               # 4-byte Folded Reload
	movl	%eax, 44(%esp)
	movl	$0, 40(%esp)
	jmp	LBB133_8
	.align	16, 0x90
LBB133_7:                               # %_label18
                                        #   in Loop: Header=BB133_8 Depth=1
	incl	40(%esp)
LBB133_8:                               # %_label14
                                        # =>This Loop Header: Depth=1
                                        #     Child Loop BB133_6 Depth 2
	movl	40(%esp), %eax
	movl	%eax, 24(%esp)          # 4-byte Spill
	movl	48(%esp), %esi
	movl	52(%esp), %ebx
	movl	$1, 4(%esp)
	movl	$__Pshadow_Pstandard_Cint_Mclass, (%esp)
	calll	__Pshadow_Pstandard_CClass_Mallocate_Pshadow_Pstandard_Cint
	movl	%eax, %edi
	movl	%ebx, (%edi)
	movl	$__Pshadow_Pstandard_CArray_Mclass, (%esp)
	calll	__Pshadow_Pstandard_CClass_Mallocate
	movl	%esi, 16(%esp)
	movl	%edi, 8(%esp)
	movl	%eax, (%esp)
	movl	$1, 12(%esp)
	movl	$__Pshadow_Pstandard_Ccode_Mclass, 4(%esp)
	calll	__Pshadow_Pstandard_CArray_Mcreate_Pshadow_Pstandard_Cint_A1_Pshadow_Pstandard_CObject
	movl	(%eax), %eax
	movl	84(%eax), %eax
	movl	%eax, 20(%esp)          # 4-byte Spill
	movl	$1, 4(%esp)
	movl	$__Pshadow_Pstandard_Cint_Mclass, (%esp)
	calll	__Pshadow_Pstandard_CClass_Mallocate_Pshadow_Pstandard_Cint
	movl	%eax, %edi
	movl	%ebx, (%edi)
	movl	$__Pshadow_Pstandard_CArray_Mclass, (%esp)
	calll	__Pshadow_Pstandard_CClass_Mallocate
	movl	%esi, 16(%esp)
	movl	%edi, 8(%esp)
	movl	%eax, (%esp)
	movl	$1, 12(%esp)
	movl	$__Pshadow_Pstandard_Ccode_Mclass, 4(%esp)
	calll	__Pshadow_Pstandard_CArray_Mcreate_Pshadow_Pstandard_Cint_A1_Pshadow_Pstandard_CObject
	movl	%eax, (%esp)
	calll	*20(%esp)               # 4-byte Folded Reload
	cmpl	%eax, 24(%esp)          # 4-byte Folded Reload
	jge	LBB133_9
# BB#1:                                 # %_label13
                                        #   in Loop: Header=BB133_8 Depth=1
	movl	40(%esp), %eax
	movl	48(%esp), %ecx
	cmpl	$0, (%ecx,%eax,4)
	jns	LBB133_3
# BB#2:                                 # %_label16
                                        #   in Loop: Header=BB133_8 Depth=1
	movl	$__Pshadow_Pstandard_CIllegalArgumentException_Mclass, (%esp)
	calll	__Pshadow_Pstandard_CClass_Mallocate
	movl	%eax, %edi
	movl	%edi, (%esp)
	calll	__Pshadow_Pstandard_CIllegalArgumentException_Mcreate
	movl	(%edi), %eax
	movl	%edi, (%esp)
	calll	*68(%eax)
	jmp	LBB133_7
	.align	16, 0x90
LBB133_3:                               # %_label17
                                        #   in Loop: Header=BB133_8 Depth=1
	movl	40(%esp), %eax
	movl	48(%esp), %ecx
	cmpl	$128, (%ecx,%eax,4)
	jl	LBB133_7
# BB#4:                                 # %_label19
                                        #   in Loop: Header=BB133_8 Depth=1
	movl	56(%esp), %eax
	movb	$0, 12(%eax)
	incl	44(%esp)
	movl	$11, 36(%esp)
	jmp	LBB133_6
	.align	16, 0x90
LBB133_5:                               # %_label22
                                        #   in Loop: Header=BB133_6 Depth=2
	incl	44(%esp)
	addl	$5, 36(%esp)
LBB133_6:                               # %_label23
                                        #   Parent Loop BB133_8 Depth=1
                                        # =>  This Inner Loop Header: Depth=2
	movb	36(%esp), %cl
	movl	$1, %eax
	shll	%cl, %eax
	movl	40(%esp), %ecx
	movl	48(%esp), %edx
	cmpl	%eax, (%edx,%ecx,4)
	jge	LBB133_5
	jmp	LBB133_7
LBB133_9:                               # %_label15
	movl	44(%esp), %esi
	movl	%esi, 4(%esp)
	movl	$__Pshadow_Pstandard_Cbyte_Mclass, (%esp)
	calll	__Pshadow_Pstandard_CClass_Mallocate_Pshadow_Pstandard_Cint
	movl	56(%esp), %ecx
	movl	%esi, 8(%ecx)
	movl	%eax, 4(%ecx)
	movl	$0, 32(%esp)
	movl	$0, 28(%esp)
	jmp	LBB133_23
	.align	16, 0x90
LBB133_22:                              # %_label30
                                        #   in Loop: Header=BB133_23 Depth=1
	incl	32(%esp)
LBB133_23:                              # %_label26
                                        # =>This Inner Loop Header: Depth=1
	movl	32(%esp), %eax
	movl	%eax, 24(%esp)          # 4-byte Spill
	movl	48(%esp), %ebx
	movl	52(%esp), %esi
	movl	$1, 4(%esp)
	movl	$__Pshadow_Pstandard_Cint_Mclass, (%esp)
	calll	__Pshadow_Pstandard_CClass_Mallocate_Pshadow_Pstandard_Cint
	movl	%eax, %edi
	movl	%esi, (%edi)
	movl	$__Pshadow_Pstandard_CArray_Mclass, (%esp)
	calll	__Pshadow_Pstandard_CClass_Mallocate
	movl	%ebx, 16(%esp)
	movl	%edi, 8(%esp)
	movl	%eax, (%esp)
	movl	$1, 12(%esp)
	movl	$__Pshadow_Pstandard_Ccode_Mclass, 4(%esp)
	calll	__Pshadow_Pstandard_CArray_Mcreate_Pshadow_Pstandard_Cint_A1_Pshadow_Pstandard_CObject
	movl	(%eax), %eax
	movl	84(%eax), %eax
	movl	%eax, 20(%esp)          # 4-byte Spill
	movl	$1, 4(%esp)
	movl	$__Pshadow_Pstandard_Cint_Mclass, (%esp)
	calll	__Pshadow_Pstandard_CClass_Mallocate_Pshadow_Pstandard_Cint
	movl	%eax, %edi
	movl	%esi, (%edi)
	movl	$__Pshadow_Pstandard_CArray_Mclass, (%esp)
	calll	__Pshadow_Pstandard_CClass_Mallocate
	movl	%ebx, 16(%esp)
	movl	%edi, 8(%esp)
	movl	%eax, (%esp)
	movl	$1, 12(%esp)
	movl	$__Pshadow_Pstandard_Ccode_Mclass, 4(%esp)
	calll	__Pshadow_Pstandard_CArray_Mcreate_Pshadow_Pstandard_Cint_A1_Pshadow_Pstandard_CObject
	movl	%eax, (%esp)
	calll	*20(%esp)               # 4-byte Folded Reload
	cmpl	%eax, 24(%esp)          # 4-byte Folded Reload
	jge	LBB133_24
# BB#10:                                # %_label25
                                        #   in Loop: Header=BB133_23 Depth=1
	movl	32(%esp), %eax
	movl	48(%esp), %ecx
	cmpl	$127, (%ecx,%eax,4)
	jg	LBB133_12
# BB#11:                                # %_label28
                                        #   in Loop: Header=BB133_23 Depth=1
	movl	32(%esp), %eax
	movl	48(%esp), %ecx
	movb	(%ecx,%eax,4), %al
	movl	56(%esp), %ecx
	movl	4(%ecx), %ecx
	movl	28(%esp), %edx
	movb	%al, (%ecx,%edx)
	incl	28(%esp)
	jmp	LBB133_22
	.align	16, 0x90
LBB133_12:                              # %_label29
                                        #   in Loop: Header=BB133_23 Depth=1
	movl	32(%esp), %eax
	movl	48(%esp), %ecx
	cmpl	$2047, (%ecx,%eax,4)    # imm = 0x7FF
	jg	LBB133_14
# BB#13:                                # %_label31
                                        #   in Loop: Header=BB133_23 Depth=1
	movl	32(%esp), %eax
	movl	48(%esp), %ecx
	movl	(%ecx,%eax,4), %eax
	shrl	$6, %eax
	andl	$31, %eax
	orl	$192, %eax
	movl	56(%esp), %ecx
	movl	4(%ecx), %ecx
	movl	28(%esp), %edx
	movb	%al, (%ecx,%edx)
	movl	32(%esp), %eax
	movl	48(%esp), %ecx
	movl	(%ecx,%eax,4), %eax
	andl	$63, %eax
	orl	$128, %eax
	movl	56(%esp), %ecx
	movl	4(%ecx), %ecx
	movl	28(%esp), %edx
	movb	%al, 1(%edx,%ecx)
	addl	$2, 28(%esp)
	jmp	LBB133_22
	.align	16, 0x90
LBB133_14:                              # %_label32
                                        #   in Loop: Header=BB133_23 Depth=1
	movl	32(%esp), %eax
	movl	48(%esp), %ecx
	cmpl	$65535, (%ecx,%eax,4)   # imm = 0xFFFF
	jg	LBB133_16
# BB#15:                                # %_label34
                                        #   in Loop: Header=BB133_23 Depth=1
	movl	32(%esp), %eax
	movl	48(%esp), %ecx
	movl	(%ecx,%eax,4), %eax
	shrl	$12, %eax
	andl	$15, %eax
	orl	$224, %eax
	movl	56(%esp), %ecx
	movl	4(%ecx), %ecx
	movl	28(%esp), %edx
	movb	%al, (%ecx,%edx)
	movl	32(%esp), %eax
	movl	48(%esp), %ecx
	movl	(%ecx,%eax,4), %eax
	shrl	$6, %eax
	andl	$63, %eax
	orl	$128, %eax
	movl	56(%esp), %ecx
	movl	4(%ecx), %ecx
	movl	28(%esp), %edx
	movb	%al, 1(%edx,%ecx)
	movl	32(%esp), %eax
	movl	48(%esp), %ecx
	movl	(%ecx,%eax,4), %eax
	andl	$63, %eax
	orl	$128, %eax
	movl	56(%esp), %ecx
	movl	4(%ecx), %ecx
	movl	28(%esp), %edx
	movb	%al, 2(%edx,%ecx)
	addl	$3, 28(%esp)
	jmp	LBB133_22
LBB133_16:                              # %_label35
                                        #   in Loop: Header=BB133_23 Depth=1
	movl	32(%esp), %eax
	movl	48(%esp), %ecx
	cmpl	$2097151, (%ecx,%eax,4) # imm = 0x1FFFFF
	jg	LBB133_18
# BB#17:                                # %_label37
                                        #   in Loop: Header=BB133_23 Depth=1
	movl	32(%esp), %eax
	movl	48(%esp), %ecx
	movl	(%ecx,%eax,4), %eax
	shrl	$18, %eax
	andl	$7, %eax
	orl	$240, %eax
	movl	56(%esp), %ecx
	movl	4(%ecx), %ecx
	movl	28(%esp), %edx
	movb	%al, (%ecx,%edx)
	movl	32(%esp), %eax
	movl	48(%esp), %ecx
	movl	(%ecx,%eax,4), %eax
	shrl	$12, %eax
	andl	$63, %eax
	orl	$128, %eax
	movl	56(%esp), %ecx
	movl	4(%ecx), %ecx
	movl	28(%esp), %edx
	movb	%al, 1(%edx,%ecx)
	movl	32(%esp), %eax
	movl	48(%esp), %ecx
	movl	(%ecx,%eax,4), %eax
	shrl	$6, %eax
	andl	$63, %eax
	orl	$128, %eax
	movl	56(%esp), %ecx
	movl	4(%ecx), %ecx
	movl	28(%esp), %edx
	movb	%al, 2(%edx,%ecx)
	movl	32(%esp), %eax
	movl	48(%esp), %ecx
	movl	(%ecx,%eax,4), %eax
	andl	$63, %eax
	orl	$128, %eax
	movl	56(%esp), %ecx
	movl	4(%ecx), %ecx
	movl	28(%esp), %edx
	movb	%al, 3(%edx,%ecx)
	addl	$4, 28(%esp)
	jmp	LBB133_22
LBB133_18:                              # %_label38
                                        #   in Loop: Header=BB133_23 Depth=1
	movl	32(%esp), %eax
	movl	48(%esp), %ecx
	cmpl	$67108863, (%ecx,%eax,4) # imm = 0x3FFFFFF
	jg	LBB133_20
# BB#19:                                # %_label40
                                        #   in Loop: Header=BB133_23 Depth=1
	movl	32(%esp), %eax
	movl	48(%esp), %ecx
	movzbl	3(%ecx,%eax,4), %eax
	andl	$3, %eax
	orl	$248, %eax
	movl	56(%esp), %ecx
	movl	4(%ecx), %ecx
	movl	28(%esp), %edx
	movb	%al, (%ecx,%edx)
	movl	32(%esp), %eax
	movl	48(%esp), %ecx
	movl	(%ecx,%eax,4), %eax
	shrl	$18, %eax
	andl	$63, %eax
	orl	$128, %eax
	movl	56(%esp), %ecx
	movl	4(%ecx), %ecx
	movl	28(%esp), %edx
	movb	%al, 1(%edx,%ecx)
	movl	32(%esp), %eax
	movl	48(%esp), %ecx
	movl	(%ecx,%eax,4), %eax
	shrl	$12, %eax
	andl	$63, %eax
	orl	$128, %eax
	movl	56(%esp), %ecx
	movl	4(%ecx), %ecx
	movl	28(%esp), %edx
	movb	%al, 2(%edx,%ecx)
	movl	32(%esp), %eax
	movl	48(%esp), %ecx
	movl	(%ecx,%eax,4), %eax
	shrl	$6, %eax
	andl	$63, %eax
	orl	$128, %eax
	movl	56(%esp), %ecx
	movl	4(%ecx), %ecx
	movl	28(%esp), %edx
	movb	%al, 3(%edx,%ecx)
	movl	32(%esp), %eax
	movl	48(%esp), %ecx
	movl	(%ecx,%eax,4), %eax
	andl	$63, %eax
	orl	$128, %eax
	movl	56(%esp), %ecx
	movl	4(%ecx), %ecx
	movl	28(%esp), %edx
	movb	%al, 4(%edx,%ecx)
	addl	$5, 28(%esp)
	jmp	LBB133_22
LBB133_20:                              # %_label41
                                        #   in Loop: Header=BB133_23 Depth=1
	movb	$1, %al
	testb	%al, %al
	jne	LBB133_22
# BB#21:                                # %_label43
                                        #   in Loop: Header=BB133_23 Depth=1
	movl	32(%esp), %eax
	movl	48(%esp), %ecx
	movl	(%ecx,%eax,4), %eax
	shrl	$30, %eax
	andl	$1, %eax
	orl	$252, %eax
	movl	56(%esp), %ecx
	movl	4(%ecx), %ecx
	movl	28(%esp), %edx
	movb	%al, (%ecx,%edx)
	movl	32(%esp), %eax
	movl	48(%esp), %ecx
	movzbl	3(%ecx,%eax,4), %eax
	andl	$63, %eax
	orl	$128, %eax
	movl	56(%esp), %ecx
	movl	4(%ecx), %ecx
	movl	28(%esp), %edx
	movb	%al, 1(%edx,%ecx)
	movl	32(%esp), %eax
	movl	48(%esp), %ecx
	movl	(%ecx,%eax,4), %eax
	shrl	$18, %eax
	andl	$63, %eax
	orl	$128, %eax
	movl	56(%esp), %ecx
	movl	4(%ecx), %ecx
	movl	28(%esp), %edx
	movb	%al, 2(%edx,%ecx)
	movl	32(%esp), %eax
	movl	48(%esp), %ecx
	movl	(%ecx,%eax,4), %eax
	shrl	$12, %eax
	andl	$63, %eax
	orl	$128, %eax
	movl	56(%esp), %ecx
	movl	4(%ecx), %ecx
	movl	28(%esp), %edx
	movb	%al, 3(%edx,%ecx)
	movl	32(%esp), %eax
	movl	48(%esp), %ecx
	movl	(%ecx,%eax,4), %eax
	shrl	$6, %eax
	andl	$63, %eax
	orl	$128, %eax
	movl	56(%esp), %ecx
	movl	4(%ecx), %ecx
	movl	28(%esp), %edx
	movb	%al, 4(%edx,%ecx)
	movl	32(%esp), %eax
	movl	48(%esp), %ecx
	movl	(%ecx,%eax,4), %eax
	andl	$63, %eax
	orl	$128, %eax
	movl	56(%esp), %ecx
	movl	4(%ecx), %ecx
	movl	28(%esp), %edx
	movb	%al, 5(%edx,%ecx)
	addl	$6, 28(%esp)
	jmp	LBB133_22
LBB133_24:                              # %_label27
	movl	8(%ebp), %eax
	leal	-12(%ebp), %esp
	popl	%esi
	popl	%edi
	popl	%ebx
	popl	%ebp
	ret
	.cfi_endproc

	.def	 __Pshadow_Pstandard_CString_Mcreate_Pshadow_Pstandard_CString;
	.scl	2;
	.type	32;
	.endef
	.globl	__Pshadow_Pstandard_CString_Mcreate_Pshadow_Pstandard_CString
	.align	16, 0x90
__Pshadow_Pstandard_CString_Mcreate_Pshadow_Pstandard_CString: # @_Pshadow_Pstandard_CString_Mcreate_Pshadow_Pstandard_CString
	.cfi_startproc
# BB#0:
	pushl	%edi
Ltmp484:
	.cfi_def_cfa_offset 8
	pushl	%esi
Ltmp485:
	.cfi_def_cfa_offset 12
	subl	$16, %esp
Ltmp486:
	.cfi_def_cfa_offset 28
Ltmp487:
	.cfi_offset %esi, -12
Ltmp488:
	.cfi_offset %edi, -8
	movl	28(%esp), %esi
	movl	%esi, 12(%esp)
	movl	32(%esp), %eax
	movl	%eax, 8(%esp)
	movl	12(%esp), %eax
	movl	%eax, (%esp)
	calll	__Pshadow_Pstandard_CObject_Mcreate
	movl	$__Pshadow_Pstandard_CString_Mclass, (%esi)
	movl	12(%esp), %eax
	movb	$1, 12(%eax)
	movl	12(%esp), %edi
	movl	$0, 4(%esp)
	movl	$__Pshadow_Pstandard_Cbyte_Mclass, (%esp)
	calll	__Pshadow_Pstandard_CClass_Mallocate_Pshadow_Pstandard_Cint
	movl	%eax, 4(%edi)
	movl	$0, 8(%edi)
	movl	8(%esp), %ecx
	movl	4(%ecx), %eax
	movl	8(%ecx), %ecx
	movl	12(%esp), %edx
	movl	%ecx, 8(%edx)
	movl	%eax, 4(%edx)
	movl	8(%esp), %eax
	movb	12(%eax), %al
	movl	12(%esp), %ecx
	movb	%al, 12(%ecx)
	movl	%esi, %eax
	addl	$16, %esp
	popl	%esi
	popl	%edi
	ret
	.cfi_endproc

	.def	 __Pshadow_Pstandard_CString_Mcreate_Pshadow_Pstandard_Cbyte_A1_Pshadow_Pstandard_Cboolean;
	.scl	2;
	.type	32;
	.endef
	.globl	__Pshadow_Pstandard_CString_Mcreate_Pshadow_Pstandard_Cbyte_A1_Pshadow_Pstandard_Cboolean
	.align	16, 0x90
__Pshadow_Pstandard_CString_Mcreate_Pshadow_Pstandard_Cbyte_A1_Pshadow_Pstandard_Cboolean: # @_Pshadow_Pstandard_CString_Mcreate_Pshadow_Pstandard_Cbyte_A1_Pshadow_Pstandard_Cboolean
	.cfi_startproc
# BB#0:
	pushl	%ebp
Ltmp492:
	.cfi_def_cfa_offset 8
Ltmp493:
	.cfi_offset %ebp, -8
	movl	%esp, %ebp
Ltmp494:
	.cfi_def_cfa_register %ebp
	pushl	%edi
	pushl	%esi
	andl	$-8, %esp
	subl	$32, %esp
Ltmp495:
	.cfi_offset %esi, -16
Ltmp496:
	.cfi_offset %edi, -12
	movl	8(%ebp), %esi
	movl	%esi, 28(%esp)
	movl	16(%ebp), %eax
	movl	%eax, 20(%esp)
	movl	12(%ebp), %eax
	movl	%eax, 16(%esp)
	movb	20(%ebp), %al
	andb	$1, %al
	movb	%al, 15(%esp)
	movl	28(%esp), %eax
	movl	%eax, (%esp)
	calll	__Pshadow_Pstandard_CObject_Mcreate
	movl	$__Pshadow_Pstandard_CString_Mclass, (%esi)
	movl	28(%esp), %eax
	movb	$1, 12(%eax)
	movl	28(%esp), %edi
	movl	$0, 4(%esp)
	movl	$__Pshadow_Pstandard_Cbyte_Mclass, (%esp)
	calll	__Pshadow_Pstandard_CClass_Mallocate_Pshadow_Pstandard_Cint
	movl	%eax, 4(%edi)
	movl	$0, 8(%edi)
	movl	16(%esp), %eax
	movl	20(%esp), %ecx
	movl	28(%esp), %edx
	movl	%ecx, 8(%edx)
	movl	%eax, 4(%edx)
	movb	15(%esp), %al
	movl	28(%esp), %ecx
	movb	%al, 12(%ecx)
	movl	%esi, %eax
	leal	-8(%ebp), %esp
	popl	%esi
	popl	%edi
	popl	%ebp
	ret
	.cfi_endproc

	.def	 __Pshadow_Pstandard_CString_Mconcatenate_Pshadow_Pstandard_CString;
	.scl	2;
	.type	32;
	.endef
	.globl	__Pshadow_Pstandard_CString_Mconcatenate_Pshadow_Pstandard_CString
	.align	16, 0x90
__Pshadow_Pstandard_CString_Mconcatenate_Pshadow_Pstandard_CString: # @_Pshadow_Pstandard_CString_Mconcatenate_Pshadow_Pstandard_CString
	.cfi_startproc
# BB#0:
	pushl	%ebp
Ltmp500:
	.cfi_def_cfa_offset 8
Ltmp501:
	.cfi_offset %ebp, -8
	movl	%esp, %ebp
Ltmp502:
	.cfi_def_cfa_register %ebp
	pushl	%ebx
	pushl	%edi
	pushl	%esi
	andl	$-8, %esp
	subl	$56, %esp
Ltmp503:
	.cfi_offset %esi, -20
Ltmp504:
	.cfi_offset %edi, -16
Ltmp505:
	.cfi_offset %ebx, -12
	movl	8(%ebp), %eax
	movl	%eax, 48(%esp)
	movl	12(%ebp), %esi
	movl	%esi, 44(%esp)
	movl	48(%esp), %eax
	movl	%eax, (%esp)
	calll	__Pshadow_Pstandard_CString_Msize
	movl	%eax, %edi
	movl	%esi, (%esp)
	calll	__Pshadow_Pstandard_CString_Msize
	movl	%eax, %esi
	addl	%edi, %esi
	movl	%esi, 4(%esp)
	movl	$__Pshadow_Pstandard_Cbyte_Mclass, (%esp)
	calll	__Pshadow_Pstandard_CClass_Mallocate_Pshadow_Pstandard_Cint
	movl	%esi, 36(%esp)
	movl	%eax, 32(%esp)
	movl	$0, 28(%esp)
	jmp	LBB136_2
	.align	16, 0x90
LBB136_1:                               # %_label46
                                        #   in Loop: Header=BB136_2 Depth=1
	movl	48(%esp), %eax
	movl	28(%esp), %ecx
	movl	%ecx, 4(%esp)
	movl	%eax, (%esp)
	calll	__Pshadow_Pstandard_CString_MgetChar_Pshadow_Pstandard_Cint
	movl	32(%esp), %ecx
	movl	28(%esp), %edx
	movb	%al, (%ecx,%edx)
	incl	28(%esp)
LBB136_2:                               # %_label47
                                        # =>This Inner Loop Header: Depth=1
	movl	28(%esp), %esi
	movl	48(%esp), %eax
	movl	%eax, (%esp)
	calll	__Pshadow_Pstandard_CString_Msize
	cmpl	%eax, %esi
	jl	LBB136_1
# BB#3:                                 # %_label48
	movl	$0, 24(%esp)
	jmp	LBB136_5
	.align	16, 0x90
LBB136_4:                               # %_label49
                                        #   in Loop: Header=BB136_5 Depth=1
	movl	44(%esp), %eax
	movl	24(%esp), %ecx
	movl	%ecx, 4(%esp)
	movl	%eax, (%esp)
	calll	__Pshadow_Pstandard_CString_MgetChar_Pshadow_Pstandard_Cint
	movb	%al, %bl
	movl	48(%esp), %eax
	movl	%eax, (%esp)
	calll	__Pshadow_Pstandard_CString_Msize
	addl	24(%esp), %eax
	movl	32(%esp), %ecx
	movb	%bl, (%ecx,%eax)
	incl	24(%esp)
LBB136_5:                               # %_label50
                                        # =>This Inner Loop Header: Depth=1
	movl	24(%esp), %esi
	movl	44(%esp), %eax
	movl	%eax, (%esp)
	calll	__Pshadow_Pstandard_CString_Msize
	cmpl	%eax, %esi
	jl	LBB136_4
# BB#6:                                 # %_label51
	movl	$__Pshadow_Pstandard_CString_Mclass, (%esp)
	calll	__Pshadow_Pstandard_CClass_Mallocate
	movl	%eax, %esi
	movl	48(%esp), %eax
	movb	12(%eax), %cl
	movb	%cl, 23(%esp)
	cmpb	$1, 12(%eax)
	jne	LBB136_8
# BB#7:                                 # %_label53
	movl	44(%esp), %eax
	movb	12(%eax), %al
	movb	%al, 23(%esp)
LBB136_8:                               # %_label52
	movl	32(%esp), %eax
	movl	36(%esp), %ecx
	movzbl	23(%esp), %edx
	movl	%edx, 12(%esp)
	movl	%ecx, 8(%esp)
	movl	%eax, 4(%esp)
	movl	%esi, (%esp)
	calll	__Pshadow_Pstandard_CString_Mcreate_Pshadow_Pstandard_Cbyte_A1_Pshadow_Pstandard_Cboolean
	movl	%esi, %eax
	leal	-12(%ebp), %esp
	popl	%esi
	popl	%edi
	popl	%ebx
	popl	%ebp
	ret
	.cfi_endproc

	.def	 __Pshadow_Pstandard_CString_Msize;
	.scl	2;
	.type	32;
	.endef
	.globl	__Pshadow_Pstandard_CString_Msize
	.align	16, 0x90
__Pshadow_Pstandard_CString_Msize:      # @_Pshadow_Pstandard_CString_Msize
	.cfi_startproc
# BB#0:
	pushl	%ebp
Ltmp511:
	.cfi_def_cfa_offset 8
	pushl	%ebx
Ltmp512:
	.cfi_def_cfa_offset 12
	pushl	%edi
Ltmp513:
	.cfi_def_cfa_offset 16
	pushl	%esi
Ltmp514:
	.cfi_def_cfa_offset 20
	subl	$24, %esp
Ltmp515:
	.cfi_def_cfa_offset 44
Ltmp516:
	.cfi_offset %esi, -20
Ltmp517:
	.cfi_offset %edi, -16
Ltmp518:
	.cfi_offset %ebx, -12
Ltmp519:
	.cfi_offset %ebp, -8
	movl	44(%esp), %eax
	movl	%eax, 20(%esp)
	movl	4(%eax), %edi
	movl	8(%eax), %ebx
	movl	$1, 4(%esp)
	movl	$__Pshadow_Pstandard_Cint_Mclass, (%esp)
	calll	__Pshadow_Pstandard_CClass_Mallocate_Pshadow_Pstandard_Cint
	movl	%eax, %esi
	movl	%ebx, (%esi)
	movl	$__Pshadow_Pstandard_CArray_Mclass, (%esp)
	calll	__Pshadow_Pstandard_CClass_Mallocate
	movl	%edi, 16(%esp)
	movl	%esi, 8(%esp)
	movl	%eax, (%esp)
	movl	$1, 12(%esp)
	movl	$__Pshadow_Pstandard_Cbyte_Mclass, 4(%esp)
	calll	__Pshadow_Pstandard_CArray_Mcreate_Pshadow_Pstandard_Cint_A1_Pshadow_Pstandard_CObject
	movl	(%eax), %eax
	movl	84(%eax), %ebp
	movl	$1, 4(%esp)
	movl	$__Pshadow_Pstandard_Cint_Mclass, (%esp)
	calll	__Pshadow_Pstandard_CClass_Mallocate_Pshadow_Pstandard_Cint
	movl	%eax, %esi
	movl	%ebx, (%esi)
	movl	$__Pshadow_Pstandard_CArray_Mclass, (%esp)
	calll	__Pshadow_Pstandard_CClass_Mallocate
	movl	%edi, 16(%esp)
	movl	%esi, 8(%esp)
	movl	%eax, (%esp)
	movl	$1, 12(%esp)
	movl	$__Pshadow_Pstandard_Cbyte_Mclass, 4(%esp)
	calll	__Pshadow_Pstandard_CArray_Mcreate_Pshadow_Pstandard_Cint_A1_Pshadow_Pstandard_CObject
	movl	%eax, (%esp)
	calll	*%ebp
	addl	$24, %esp
	popl	%esi
	popl	%edi
	popl	%ebx
	popl	%ebp
	ret
	.cfi_endproc

	.def	 __Pshadow_Pstandard_CString_MisEmpty;
	.scl	2;
	.type	32;
	.endef
	.globl	__Pshadow_Pstandard_CString_MisEmpty
	.align	16, 0x90
__Pshadow_Pstandard_CString_MisEmpty:   # @_Pshadow_Pstandard_CString_MisEmpty
	.cfi_startproc
# BB#0:
	subl	$8, %esp
Ltmp521:
	.cfi_def_cfa_offset 12
	movl	12(%esp), %eax
	movl	%eax, 4(%esp)
	movl	%eax, (%esp)
	calll	__Pshadow_Pstandard_CString_Msize
	testl	%eax, %eax
	sete	%al
	addl	$8, %esp
	ret
	.cfi_endproc

	.def	 __Pshadow_Pstandard_CString_MtoUpperCase;
	.scl	2;
	.type	32;
	.endef
	.globl	__Pshadow_Pstandard_CString_MtoUpperCase
	.align	16, 0x90
__Pshadow_Pstandard_CString_MtoUpperCase: # @_Pshadow_Pstandard_CString_MtoUpperCase
	.cfi_startproc
# BB#0:
	pushl	%ebx
Ltmp526:
	.cfi_def_cfa_offset 8
	pushl	%edi
Ltmp527:
	.cfi_def_cfa_offset 12
	pushl	%esi
Ltmp528:
	.cfi_def_cfa_offset 16
	subl	$20, %esp
Ltmp529:
	.cfi_def_cfa_offset 36
Ltmp530:
	.cfi_offset %esi, -16
Ltmp531:
	.cfi_offset %edi, -12
Ltmp532:
	.cfi_offset %ebx, -8
	movl	36(%esp), %eax
	movl	%eax, 16(%esp)
	movl	$__Pshadow_Pstandard_CString_IStringIterator_Mclass, (%esp)
	calll	__Pshadow_Pstandard_CClass_Mallocate
	movl	%eax, %esi
	movl	16(%esp), %eax
	movl	%eax, 4(%esp)
	movl	%esi, (%esp)
	calll	__Pshadow_Pstandard_CString_IStringIterator_Mcreate
	movl	%esi, 12(%esp)
	movl	$__Pshadow_Pstandard_CMutableString_Mclass, (%esp)
	calll	__Pshadow_Pstandard_CClass_Mallocate
	movl	%eax, %esi
	movl	%esi, (%esp)
	calll	__Pshadow_Pstandard_CMutableString_Mcreate
	movl	%esi, 8(%esp)
	jmp	LBB139_2
	.align	16, 0x90
LBB139_1:                               # %_label54
                                        #   in Loop: Header=BB139_2 Depth=1
	movl	8(%esp), %eax
	movl	(%eax), %eax
	movl	60(%eax), %edi
	movl	12(%esp), %eax
	movl	(%eax), %ecx
	movl	%eax, (%esp)
	calll	*64(%ecx)
	movl	%eax, %esi
	movl	$__Pshadow_Pstandard_Ccode_Mclass, (%esp)
	calll	__Pshadow_Pstandard_CClass_Mallocate
	movl	%esi, 4(%eax)
	movl	%eax, (%esp)
	calll	__Pshadow_Pstandard_Ccode_MtoLowerCase
	movl	%eax, %esi
	movl	8(%esp), %ebx
	movl	$__Pshadow_Pstandard_Ccode_Mclass, (%esp)
	calll	__Pshadow_Pstandard_CClass_Mallocate
	movl	$__Pshadow_Pstandard_Ccode_Mclass, (%eax)
	movl	%esi, 4(%eax)
	movl	%eax, 4(%esp)
	movl	%ebx, (%esp)
	calll	*%edi
LBB139_2:                               # %_label55
                                        # =>This Inner Loop Header: Depth=1
	movl	12(%esp), %eax
	movl	(%eax), %ecx
	movl	%eax, (%esp)
	calll	*60(%ecx)
	testb	$1, %al
	jne	LBB139_1
# BB#3:                                 # %_label56
	movl	8(%esp), %eax
	movl	(%eax), %ecx
	movl	%eax, (%esp)
	calll	*56(%ecx)
	addl	$20, %esp
	popl	%esi
	popl	%edi
	popl	%ebx
	ret
	.cfi_endproc

	.def	 __Pshadow_Pstandard_CString_MtoLowerCase;
	.scl	2;
	.type	32;
	.endef
	.globl	__Pshadow_Pstandard_CString_MtoLowerCase
	.align	16, 0x90
__Pshadow_Pstandard_CString_MtoLowerCase: # @_Pshadow_Pstandard_CString_MtoLowerCase
	.cfi_startproc
# BB#0:
	pushl	%ebx
Ltmp537:
	.cfi_def_cfa_offset 8
	pushl	%edi
Ltmp538:
	.cfi_def_cfa_offset 12
	pushl	%esi
Ltmp539:
	.cfi_def_cfa_offset 16
	subl	$20, %esp
Ltmp540:
	.cfi_def_cfa_offset 36
Ltmp541:
	.cfi_offset %esi, -16
Ltmp542:
	.cfi_offset %edi, -12
Ltmp543:
	.cfi_offset %ebx, -8
	movl	36(%esp), %eax
	movl	%eax, 16(%esp)
	movl	$__Pshadow_Pstandard_CString_IStringIterator_Mclass, (%esp)
	calll	__Pshadow_Pstandard_CClass_Mallocate
	movl	%eax, %esi
	movl	16(%esp), %eax
	movl	%eax, 4(%esp)
	movl	%esi, (%esp)
	calll	__Pshadow_Pstandard_CString_IStringIterator_Mcreate
	movl	%esi, 12(%esp)
	movl	$__Pshadow_Pstandard_CMutableString_Mclass, (%esp)
	calll	__Pshadow_Pstandard_CClass_Mallocate
	movl	%eax, %esi
	movl	%esi, (%esp)
	calll	__Pshadow_Pstandard_CMutableString_Mcreate
	movl	%esi, 8(%esp)
	jmp	LBB140_2
	.align	16, 0x90
LBB140_1:                               # %_label57
                                        #   in Loop: Header=BB140_2 Depth=1
	movl	8(%esp), %eax
	movl	(%eax), %eax
	movl	60(%eax), %edi
	movl	12(%esp), %eax
	movl	(%eax), %ecx
	movl	%eax, (%esp)
	calll	*64(%ecx)
	movl	%eax, %esi
	movl	$__Pshadow_Pstandard_Ccode_Mclass, (%esp)
	calll	__Pshadow_Pstandard_CClass_Mallocate
	movl	%esi, 4(%eax)
	movl	%eax, (%esp)
	calll	__Pshadow_Pstandard_Ccode_MtoLowerCase
	movl	%eax, %esi
	movl	8(%esp), %ebx
	movl	$__Pshadow_Pstandard_Ccode_Mclass, (%esp)
	calll	__Pshadow_Pstandard_CClass_Mallocate
	movl	$__Pshadow_Pstandard_Ccode_Mclass, (%eax)
	movl	%esi, 4(%eax)
	movl	%eax, 4(%esp)
	movl	%ebx, (%esp)
	calll	*%edi
LBB140_2:                               # %_label58
                                        # =>This Inner Loop Header: Depth=1
	movl	12(%esp), %eax
	movl	(%eax), %ecx
	movl	%eax, (%esp)
	calll	*60(%ecx)
	testb	$1, %al
	jne	LBB140_1
# BB#3:                                 # %_label59
	movl	8(%esp), %eax
	movl	(%eax), %ecx
	movl	%eax, (%esp)
	calll	*56(%ecx)
	addl	$20, %esp
	popl	%esi
	popl	%edi
	popl	%ebx
	ret
	.cfi_endproc

	.def	 __Pshadow_Pstandard_CString_Msubstring_Pshadow_Pstandard_Cint_Pshadow_Pstandard_Cint;
	.scl	2;
	.type	32;
	.endef
	.globl	__Pshadow_Pstandard_CString_Msubstring_Pshadow_Pstandard_Cint_Pshadow_Pstandard_Cint
	.align	16, 0x90
__Pshadow_Pstandard_CString_Msubstring_Pshadow_Pstandard_Cint_Pshadow_Pstandard_Cint: # @_Pshadow_Pstandard_CString_Msubstring_Pshadow_Pstandard_Cint_Pshadow_Pstandard_Cint
	.cfi_startproc
# BB#0:
	pushl	%ebp
Ltmp549:
	.cfi_def_cfa_offset 8
	pushl	%ebx
Ltmp550:
	.cfi_def_cfa_offset 12
	pushl	%edi
Ltmp551:
	.cfi_def_cfa_offset 16
	pushl	%esi
Ltmp552:
	.cfi_def_cfa_offset 20
	subl	$36, %esp
Ltmp553:
	.cfi_def_cfa_offset 56
Ltmp554:
	.cfi_offset %esi, -20
Ltmp555:
	.cfi_offset %edi, -16
Ltmp556:
	.cfi_offset %ebx, -12
Ltmp557:
	.cfi_offset %ebp, -8
	movl	56(%esp), %eax
	movl	%eax, 32(%esp)
	movl	60(%esp), %eax
	movl	%eax, 28(%esp)
	movl	64(%esp), %eax
	movl	%eax, 24(%esp)
	movl	$__Pshadow_Pstandard_CString_Mclass, (%esp)
	calll	__Pshadow_Pstandard_CClass_Mallocate
	movl	%eax, 20(%esp)          # 4-byte Spill
	movl	32(%esp), %ebp
	movl	4(%ebp), %ebx
	movl	8(%ebp), %esi
	movl	$1, 4(%esp)
	movl	$__Pshadow_Pstandard_Cint_Mclass, (%esp)
	calll	__Pshadow_Pstandard_CClass_Mallocate_Pshadow_Pstandard_Cint
	movl	%eax, %edi
	movl	%esi, (%edi)
	movl	$__Pshadow_Pstandard_CArray_Mclass, (%esp)
	calll	__Pshadow_Pstandard_CClass_Mallocate
	movl	%ebx, 16(%esp)
	movl	%edi, 8(%esp)
	movl	%eax, (%esp)
	movl	$1, 12(%esp)
	movl	$__Pshadow_Pstandard_Cbyte_Mclass, 4(%esp)
	calll	__Pshadow_Pstandard_CArray_Mcreate_Pshadow_Pstandard_Cint_A1_Pshadow_Pstandard_CObject
	movl	(%eax), %eax
	movl	88(%eax), %ebx
	movl	4(%ebp), %esi
	movl	8(%ebp), %ebp
	movl	$1, 4(%esp)
	movl	$__Pshadow_Pstandard_Cint_Mclass, (%esp)
	calll	__Pshadow_Pstandard_CClass_Mallocate_Pshadow_Pstandard_Cint
	movl	%eax, %edi
	movl	%ebp, (%edi)
	movl	$__Pshadow_Pstandard_CArray_Mclass, (%esp)
	calll	__Pshadow_Pstandard_CClass_Mallocate
	movl	%esi, 16(%esp)
	movl	%edi, 8(%esp)
	movl	%eax, (%esp)
	movl	$1, 12(%esp)
	movl	$__Pshadow_Pstandard_Cbyte_Mclass, 4(%esp)
	calll	__Pshadow_Pstandard_CArray_Mcreate_Pshadow_Pstandard_Cint_A1_Pshadow_Pstandard_CObject
	movl	28(%esp), %ecx
	movl	24(%esp), %edx
	movl	%edx, 8(%esp)
	movl	%ecx, 4(%esp)
	movl	%eax, (%esp)
	calll	*%ebx
	movl	4(%eax), %ecx
	movl	16(%eax), %eax
	movl	(%ecx), %ecx
	movl	32(%esp), %edx
	movzbl	12(%edx), %edx
	movl	%edx, 12(%esp)
	movl	%ecx, 8(%esp)
	movl	%eax, 4(%esp)
	movl	20(%esp), %esi          # 4-byte Reload
	movl	%esi, (%esp)
	calll	__Pshadow_Pstandard_CString_Mcreate_Pshadow_Pstandard_Cbyte_A1_Pshadow_Pstandard_Cboolean
	movl	%esi, %eax
	addl	$36, %esp
	popl	%esi
	popl	%edi
	popl	%ebx
	popl	%ebp
	ret
	.cfi_endproc

	.def	 __Pshadow_Pstandard_CString_MgetChar_Pshadow_Pstandard_Cint;
	.scl	2;
	.type	32;
	.endef
	.globl	__Pshadow_Pstandard_CString_MgetChar_Pshadow_Pstandard_Cint
	.align	16, 0x90
__Pshadow_Pstandard_CString_MgetChar_Pshadow_Pstandard_Cint: # @_Pshadow_Pstandard_CString_MgetChar_Pshadow_Pstandard_Cint
	.cfi_startproc
# BB#0:
	subl	$8, %esp
Ltmp559:
	.cfi_def_cfa_offset 12
	movl	12(%esp), %eax
	movl	%eax, 4(%esp)
	movl	16(%esp), %eax
	movl	%eax, (%esp)
	movl	4(%esp), %ecx
	movl	4(%ecx), %ecx
	movb	(%ecx,%eax), %al
	addl	$8, %esp
	ret
	.cfi_endproc

	.def	 __Pshadow_Pstandard_CString_Mchars;
	.scl	2;
	.type	32;
	.endef
	.globl	__Pshadow_Pstandard_CString_Mchars
	.align	16, 0x90
__Pshadow_Pstandard_CString_Mchars:     # @_Pshadow_Pstandard_CString_Mchars
	.cfi_startproc
# BB#0:
	pushl	%ebp
Ltmp565:
	.cfi_def_cfa_offset 8
	pushl	%ebx
Ltmp566:
	.cfi_def_cfa_offset 12
	pushl	%edi
Ltmp567:
	.cfi_def_cfa_offset 16
	pushl	%esi
Ltmp568:
	.cfi_def_cfa_offset 20
	subl	$24, %esp
Ltmp569:
	.cfi_def_cfa_offset 44
Ltmp570:
	.cfi_offset %esi, -20
Ltmp571:
	.cfi_offset %edi, -16
Ltmp572:
	.cfi_offset %ebx, -12
Ltmp573:
	.cfi_offset %ebp, -8
	movl	44(%esp), %edi
	movl	%edi, 20(%esp)
	movl	4(%edi), %ebx
	movl	8(%edi), %ebp
	movl	$1, 4(%esp)
	movl	$__Pshadow_Pstandard_Cint_Mclass, (%esp)
	calll	__Pshadow_Pstandard_CClass_Mallocate_Pshadow_Pstandard_Cint
	movl	%eax, %esi
	movl	%ebp, (%esi)
	movl	$__Pshadow_Pstandard_CArray_Mclass, (%esp)
	calll	__Pshadow_Pstandard_CClass_Mallocate
	movl	%ebx, 16(%esp)
	movl	%esi, 8(%esp)
	movl	%eax, (%esp)
	movl	$1, 12(%esp)
	movl	$__Pshadow_Pstandard_Cbyte_Mclass, 4(%esp)
	calll	__Pshadow_Pstandard_CArray_Mcreate_Pshadow_Pstandard_Cint_A1_Pshadow_Pstandard_CObject
	movl	(%eax), %eax
	movl	36(%eax), %ebx
	movl	4(%edi), %ebp
	movl	8(%edi), %edi
	movl	$1, 4(%esp)
	movl	$__Pshadow_Pstandard_Cint_Mclass, (%esp)
	calll	__Pshadow_Pstandard_CClass_Mallocate_Pshadow_Pstandard_Cint
	movl	%eax, %esi
	movl	%edi, (%esi)
	movl	$__Pshadow_Pstandard_CArray_Mclass, (%esp)
	calll	__Pshadow_Pstandard_CClass_Mallocate
	movl	%ebp, 16(%esp)
	movl	%esi, 8(%esp)
	movl	%eax, (%esp)
	movl	$1, 12(%esp)
	movl	$__Pshadow_Pstandard_Cbyte_Mclass, 4(%esp)
	calll	__Pshadow_Pstandard_CArray_Mcreate_Pshadow_Pstandard_Cint_A1_Pshadow_Pstandard_CObject
	movl	%eax, (%esp)
	calll	*%ebx
	movl	4(%eax), %ecx
	movl	16(%eax), %eax
	movl	(%ecx), %edx
	addl	$24, %esp
	popl	%esi
	popl	%edi
	popl	%ebx
	popl	%ebp
	ret
	.cfi_endproc

	.def	 __Pshadow_Pstandard_CString_MtoString;
	.scl	2;
	.type	32;
	.endef
	.globl	__Pshadow_Pstandard_CString_MtoString
	.align	16, 0x90
__Pshadow_Pstandard_CString_MtoString:  # @_Pshadow_Pstandard_CString_MtoString
	.cfi_startproc
# BB#0:
	pushl	%eax
Ltmp575:
	.cfi_def_cfa_offset 8
	movl	8(%esp), %eax
	movl	%eax, (%esp)
	popl	%edx
	ret
	.cfi_endproc

	.def	 __Pshadow_Pstandard_CSystem_Mcreate;
	.scl	2;
	.type	32;
	.endef
	.globl	__Pshadow_Pstandard_CSystem_Mcreate
	.align	16, 0x90
__Pshadow_Pstandard_CSystem_Mcreate:    # @_Pshadow_Pstandard_CSystem_Mcreate
	.cfi_startproc
# BB#0:
	pushl	%esi
Ltmp578:
	.cfi_def_cfa_offset 8
	subl	$8, %esp
Ltmp579:
	.cfi_def_cfa_offset 16
Ltmp580:
	.cfi_offset %esi, -8
	movl	16(%esp), %esi
	movl	%esi, 4(%esp)
	movl	%esi, (%esp)
	calll	__Pshadow_Pstandard_CObject_Mcreate
	movl	$__Pshadow_Pstandard_CSystem_Mclass, (%esi)
	movl	%esi, %eax
	addl	$8, %esp
	popl	%esi
	ret
	.cfi_endproc

	.def	 __P_CUnexpectedNullException_Mcreate;
	.scl	2;
	.type	32;
	.endef
	.globl	__P_CUnexpectedNullException_Mcreate
	.align	16, 0x90
__P_CUnexpectedNullException_Mcreate:   # @_P_CUnexpectedNullException_Mcreate
	.cfi_startproc
# BB#0:
	pushl	%esi
Ltmp583:
	.cfi_def_cfa_offset 8
	subl	$8, %esp
Ltmp584:
	.cfi_def_cfa_offset 16
Ltmp585:
	.cfi_offset %esi, -8
	movl	16(%esp), %esi
	movl	%esi, 4(%esp)
	movl	%esi, (%esp)
	calll	__Pshadow_Pstandard_CException_Mcreate
	movl	$__P_CUnexpectedNullException_Mclass, (%esi)
	movl	%esi, %eax
	addl	$8, %esp
	popl	%esi
	ret
	.cfi_endproc

	.def	 __Pshadow_Pstandard_Cboolean_MtoString;
	.scl	2;
	.type	32;
	.endef
	.globl	__Pshadow_Pstandard_Cboolean_MtoString
	.align	16, 0x90
__Pshadow_Pstandard_Cboolean_MtoString: # @_Pshadow_Pstandard_Cboolean_MtoString
	.cfi_startproc
# BB#0:
	subl	$8, %esp
Ltmp587:
	.cfi_def_cfa_offset 12
	movl	12(%esp), %eax
	movb	4(%eax), %al
	movb	%al, 7(%esp)
	testb	%al, %al
	je	LBB147_2
# BB#1:                                 # %_label0
	movl	$L__string1278, (%esp)
	jmp	LBB147_3
LBB147_2:                               # %_label1
	movl	$L__string2280, (%esp)
LBB147_3:                               # %_label2
	movl	(%esp), %eax
	addl	$8, %esp
	ret
	.cfi_endproc

	.def	 __Pshadow_Pstandard_Cboolean_Mcreate;
	.scl	2;
	.type	32;
	.endef
	.globl	__Pshadow_Pstandard_Cboolean_Mcreate
	.align	16, 0x90
__Pshadow_Pstandard_Cboolean_Mcreate:   # @_Pshadow_Pstandard_Cboolean_Mcreate
	.cfi_startproc
# BB#0:
	pushl	%ebx
Ltmp591:
	.cfi_def_cfa_offset 8
	pushl	%esi
Ltmp592:
	.cfi_def_cfa_offset 12
	subl	$8, %esp
Ltmp593:
	.cfi_def_cfa_offset 20
Ltmp594:
	.cfi_offset %esi, -12
Ltmp595:
	.cfi_offset %ebx, -8
	movl	20(%esp), %esi
	movb	4(%esi), %bl
	movb	%bl, 7(%esp)
	movl	$__Pshadow_Pstandard_Cboolean_Mclass, (%esp)
	calll	__Pshadow_Pstandard_CClass_Mallocate
	movl	$__Pshadow_Pstandard_Cboolean_Mclass, (%eax)
	movb	%bl, 4(%eax)
	movl	%eax, (%esp)
	calll	__Pshadow_Pstandard_CObject_Mcreate
	movl	$__Pshadow_Pstandard_Cboolean_Mclass, (%esi)
	movl	%esi, %eax
	addl	$8, %esp
	popl	%esi
	popl	%ebx
	ret
	.cfi_endproc

	.def	 __Pshadow_Pstandard_Cbyte_Mmin_Pshadow_Pstandard_Cbyte;
	.scl	2;
	.type	32;
	.endef
	.globl	__Pshadow_Pstandard_Cbyte_Mmin_Pshadow_Pstandard_Cbyte
	.align	16, 0x90
__Pshadow_Pstandard_Cbyte_Mmin_Pshadow_Pstandard_Cbyte: # @_Pshadow_Pstandard_Cbyte_Mmin_Pshadow_Pstandard_Cbyte
	.cfi_startproc
# BB#0:
	pushl	%eax
Ltmp597:
	.cfi_def_cfa_offset 8
	movl	8(%esp), %eax
	movb	4(%eax), %al
	movb	%al, 3(%esp)
	movb	12(%esp), %al
	movb	%al, 2(%esp)
	cmpb	%al, 3(%esp)
	jge	LBB149_2
# BB#1:                                 # %_label0
	movb	3(%esp), %al
	jmp	LBB149_3
LBB149_2:                               # %_label1
	movb	2(%esp), %al
LBB149_3:                               # %_label1
	movb	%al, 1(%esp)
	movb	1(%esp), %al
	popl	%edx
	ret
	.cfi_endproc

	.def	 __Pshadow_Pstandard_Cbyte_Mmax_Pshadow_Pstandard_Cbyte;
	.scl	2;
	.type	32;
	.endef
	.globl	__Pshadow_Pstandard_Cbyte_Mmax_Pshadow_Pstandard_Cbyte
	.align	16, 0x90
__Pshadow_Pstandard_Cbyte_Mmax_Pshadow_Pstandard_Cbyte: # @_Pshadow_Pstandard_Cbyte_Mmax_Pshadow_Pstandard_Cbyte
	.cfi_startproc
# BB#0:
	pushl	%eax
Ltmp599:
	.cfi_def_cfa_offset 8
	movl	8(%esp), %eax
	movb	4(%eax), %al
	movb	%al, 3(%esp)
	movb	12(%esp), %al
	movb	%al, 2(%esp)
	cmpb	%al, 3(%esp)
	jle	LBB150_2
# BB#1:                                 # %_label3
	movb	3(%esp), %al
	jmp	LBB150_3
LBB150_2:                               # %_label4
	movb	2(%esp), %al
LBB150_3:                               # %_label4
	movb	%al, 1(%esp)
	movb	1(%esp), %al
	popl	%edx
	ret
	.cfi_endproc

	.def	 __Pshadow_Pstandard_Cbyte_Mabs;
	.scl	2;
	.type	32;
	.endef
	.globl	__Pshadow_Pstandard_Cbyte_Mabs
	.align	16, 0x90
__Pshadow_Pstandard_Cbyte_Mabs:         # @_Pshadow_Pstandard_Cbyte_Mabs
	.cfi_startproc
# BB#0:
	pushl	%eax
Ltmp601:
	.cfi_def_cfa_offset 8
	movl	8(%esp), %eax
	movb	4(%eax), %al
	movb	%al, 3(%esp)
	testb	%al, %al
	js	LBB151_1
# BB#2:                                 # %_label7
	movb	3(%esp), %al
	jmp	LBB151_3
LBB151_1:                               # %_label6
	xorb	%al, %al
	subb	3(%esp), %al
LBB151_3:                               # %_label7
	movb	%al, 2(%esp)
	movb	2(%esp), %al
	popl	%edx
	ret
	.cfi_endproc

	.def	 __Pshadow_Pstandard_Cbyte_MtoString;
	.scl	2;
	.type	32;
	.endef
	.globl	__Pshadow_Pstandard_Cbyte_MtoString
	.align	16, 0x90
__Pshadow_Pstandard_Cbyte_MtoString:    # @_Pshadow_Pstandard_Cbyte_MtoString
	.cfi_startproc
# BB#0:
	pushl	%ebx
Ltmp604:
	.cfi_def_cfa_offset 8
	subl	$12, %esp
Ltmp605:
	.cfi_def_cfa_offset 20
Ltmp606:
	.cfi_offset %ebx, -8
	movl	20(%esp), %eax
	movb	4(%eax), %bl
	movb	%bl, 11(%esp)
	movl	$__Pshadow_Pstandard_Cbyte_Mclass, (%esp)
	calll	__Pshadow_Pstandard_CClass_Mallocate
	movb	%bl, 4(%eax)
	movl	%eax, (%esp)
	movl	$10, 4(%esp)
	calll	__Pshadow_Pstandard_Cbyte_MtoString_Pshadow_Pstandard_Cubyte
	addl	$12, %esp
	popl	%ebx
	ret
	.cfi_endproc

	.def	 __Pshadow_Pstandard_Cbyte_MtoString_Pshadow_Pstandard_Cubyte;
	.scl	2;
	.type	32;
	.endef
	.globl	__Pshadow_Pstandard_Cbyte_MtoString_Pshadow_Pstandard_Cubyte
	.align	16, 0x90
__Pshadow_Pstandard_Cbyte_MtoString_Pshadow_Pstandard_Cubyte: # @_Pshadow_Pstandard_Cbyte_MtoString_Pshadow_Pstandard_Cubyte
	.cfi_startproc
# BB#0:
	pushl	%ebx
Ltmp610:
	.cfi_def_cfa_offset 8
	pushl	%esi
Ltmp611:
	.cfi_def_cfa_offset 12
	subl	$24, %esp
Ltmp612:
	.cfi_def_cfa_offset 36
Ltmp613:
	.cfi_offset %esi, -12
Ltmp614:
	.cfi_offset %ebx, -8
	movl	36(%esp), %eax
	movb	4(%eax), %al
	movb	%al, 23(%esp)
	movb	40(%esp), %al
	movb	%al, 22(%esp)
	movb	23(%esp), %bl
	movl	$__Pshadow_Pstandard_Cbyte_Mclass, (%esp)
	calll	__Pshadow_Pstandard_CClass_Mallocate
	movb	%bl, 4(%eax)
	movl	%eax, (%esp)
	calll	__Pshadow_Pstandard_Cbyte_Mabs
	movb	%al, %bl
	movzbl	22(%esp), %esi
	movl	$__Pshadow_Pstandard_Cubyte_Mclass, (%esp)
	calll	__Pshadow_Pstandard_CClass_Mallocate
	movb	%bl, 4(%eax)
	movl	%esi, 4(%esp)
	movl	%eax, (%esp)
	calll	__Pshadow_Pstandard_Cubyte_MtoString_Pshadow_Pstandard_Cubyte
	movl	%eax, 16(%esp)
	movsbl	23(%esp), %eax
	testl	%eax, %eax
	js	LBB153_2
# BB#1:                                 # %_label9
	movl	16(%esp), %eax
	jmp	LBB153_6
LBB153_2:                               # %_label10
	movl	$__Pshadow_Pstandard_Ccode_Mclass, (%esp)
	calll	__Pshadow_Pstandard_CClass_Mallocate
	movl	$__Pshadow_Pstandard_Ccode_Mclass, (%eax)
	movl	$45, 4(%eax)
	movl	(%eax), %eax
	movl	56(%eax), %esi
	movl	$__Pshadow_Pstandard_Ccode_Mclass, (%esp)
	calll	__Pshadow_Pstandard_CClass_Mallocate
	movl	$__Pshadow_Pstandard_Ccode_Mclass, (%eax)
	movl	$45, 4(%eax)
	movl	%eax, (%esp)
	calll	*%esi
	movl	%eax, %esi
	cmpl	$0, 16(%esp)
	je	LBB153_3
# BB#4:                                 # %_label13
	movl	16(%esp), %eax
	movl	(%eax), %ecx
	movl	%eax, (%esp)
	calll	*56(%ecx)
	movl	%eax, 12(%esp)
	jmp	LBB153_5
LBB153_3:                               # %_label12
	movl	$L__string1290, 12(%esp)
LBB153_5:                               # %_label14
	movl	12(%esp), %eax
	movl	%eax, 4(%esp)
	movl	%esi, (%esp)
	calll	__Pshadow_Pstandard_CString_Mconcatenate_Pshadow_Pstandard_CString
LBB153_6:                               # %_label14
	movl	%eax, 8(%esp)
	movl	8(%esp), %eax
	addl	$24, %esp
	popl	%esi
	popl	%ebx
	ret
	.cfi_endproc

	.def	 __Pshadow_Pstandard_Cbyte_Mcreate;
	.scl	2;
	.type	32;
	.endef
	.globl	__Pshadow_Pstandard_Cbyte_Mcreate
	.align	16, 0x90
__Pshadow_Pstandard_Cbyte_Mcreate:      # @_Pshadow_Pstandard_Cbyte_Mcreate
	.cfi_startproc
# BB#0:
	pushl	%ebx
Ltmp618:
	.cfi_def_cfa_offset 8
	pushl	%esi
Ltmp619:
	.cfi_def_cfa_offset 12
	subl	$8, %esp
Ltmp620:
	.cfi_def_cfa_offset 20
Ltmp621:
	.cfi_offset %esi, -12
Ltmp622:
	.cfi_offset %ebx, -8
	movl	20(%esp), %esi
	movb	4(%esi), %bl
	movb	%bl, 7(%esp)
	movl	$__Pshadow_Pstandard_Cbyte_Mclass, (%esp)
	calll	__Pshadow_Pstandard_CClass_Mallocate
	movl	$__Pshadow_Pstandard_Cbyte_Mclass, (%eax)
	movb	%bl, 4(%eax)
	movl	%eax, (%esp)
	calll	__Pshadow_Pstandard_CObject_Mcreate
	movl	$__Pshadow_Pstandard_Cbyte_Mclass, (%esi)
	movl	%esi, %eax
	addl	$8, %esp
	popl	%esi
	popl	%ebx
	ret
	.cfi_endproc

	.def	 __Pshadow_Pstandard_Ccode_MtoUpperCase;
	.scl	2;
	.type	32;
	.endef
	.globl	__Pshadow_Pstandard_Ccode_MtoUpperCase
	.align	16, 0x90
__Pshadow_Pstandard_Ccode_MtoUpperCase: # @_Pshadow_Pstandard_Ccode_MtoUpperCase
	.cfi_startproc
# BB#0:
	subl	$8, %esp
Ltmp624:
	.cfi_def_cfa_offset 12
	movl	12(%esp), %eax
	movl	4(%eax), %eax
	movl	%eax, 4(%esp)
	cmpl	$96, %eax
	setg	3(%esp)
	cmpl	$97, %eax
	jl	LBB155_2
# BB#1:                                 # %_label4
	cmpl	$123, 4(%esp)
	setl	3(%esp)
LBB155_2:                               # %_label3
	cmpb	$1, 3(%esp)
	jne	LBB155_4
# BB#3:                                 # %_label0
	movl	4(%esp), %eax
	addl	$-32, %eax
	addl	$8, %esp
	ret
LBB155_4:                               # %_label2
	movl	4(%esp), %eax
	addl	$8, %esp
	ret
	.cfi_endproc

	.def	 __Pshadow_Pstandard_Ccode_MtoLowerCase;
	.scl	2;
	.type	32;
	.endef
	.globl	__Pshadow_Pstandard_Ccode_MtoLowerCase
	.align	16, 0x90
__Pshadow_Pstandard_Ccode_MtoLowerCase: # @_Pshadow_Pstandard_Ccode_MtoLowerCase
	.cfi_startproc
# BB#0:
	subl	$8, %esp
Ltmp626:
	.cfi_def_cfa_offset 12
	movl	12(%esp), %eax
	movl	4(%eax), %eax
	movl	%eax, 4(%esp)
	cmpl	$64, %eax
	setg	3(%esp)
	cmpl	$65, %eax
	jl	LBB156_2
# BB#1:                                 # %_label9
	cmpl	$91, 4(%esp)
	setl	3(%esp)
LBB156_2:                               # %_label8
	cmpb	$1, 3(%esp)
	jne	LBB156_4
# BB#3:                                 # %_label5
	movl	4(%esp), %eax
	addl	$32, %eax
	addl	$8, %esp
	ret
LBB156_4:                               # %_label7
	movl	4(%esp), %eax
	addl	$8, %esp
	ret
	.cfi_endproc

	.def	 __Pshadow_Pstandard_Ccode_MtoString;
	.scl	2;
	.type	32;
	.endef
	.globl	__Pshadow_Pstandard_Ccode_MtoString
	.align	16, 0x90
__Pshadow_Pstandard_Ccode_MtoString:    # @_Pshadow_Pstandard_Ccode_MtoString
	.cfi_startproc
# BB#0:
	pushl	%ebp
Ltmp630:
	.cfi_def_cfa_offset 8
Ltmp631:
	.cfi_offset %ebp, -8
	movl	%esp, %ebp
Ltmp632:
	.cfi_def_cfa_register %ebp
	pushl	%esi
	andl	$-8, %esp
	subl	$32, %esp
Ltmp633:
	.cfi_offset %esi, -12
	movl	8(%ebp), %eax
	movl	4(%eax), %eax
	movl	%eax, 24(%esp)
	movl	$1, 4(%esp)
	movl	$__Pshadow_Pstandard_Ccode_Mclass, (%esp)
	calll	__Pshadow_Pstandard_CClass_Mallocate_Pshadow_Pstandard_Cint
	movl	%eax, 16(%esp)
	movl	$1, 20(%esp)
	movl	16(%esp), %eax
	movl	24(%esp), %ecx
	movl	%ecx, (%eax)
	movl	$__Pshadow_Pstandard_CString_Mclass, (%esp)
	calll	__Pshadow_Pstandard_CClass_Mallocate
	movl	%eax, %esi
	movl	16(%esp), %eax
	movl	20(%esp), %ecx
	movl	%ecx, 8(%esp)
	movl	%eax, 4(%esp)
	movl	%esi, (%esp)
	calll	__Pshadow_Pstandard_CString_Mcreate_Pshadow_Pstandard_Ccode_A1
	movl	%esi, %eax
	leal	-4(%ebp), %esp
	popl	%esi
	popl	%ebp
	ret
	.cfi_endproc

	.def	 __Pshadow_Pstandard_Ccode_Mcreate;
	.scl	2;
	.type	32;
	.endef
	.globl	__Pshadow_Pstandard_Ccode_Mcreate
	.align	16, 0x90
__Pshadow_Pstandard_Ccode_Mcreate:      # @_Pshadow_Pstandard_Ccode_Mcreate
	.cfi_startproc
# BB#0:
	pushl	%edi
Ltmp637:
	.cfi_def_cfa_offset 8
	pushl	%esi
Ltmp638:
	.cfi_def_cfa_offset 12
	subl	$8, %esp
Ltmp639:
	.cfi_def_cfa_offset 20
Ltmp640:
	.cfi_offset %esi, -12
Ltmp641:
	.cfi_offset %edi, -8
	movl	20(%esp), %esi
	movl	4(%esi), %edi
	movl	%edi, 4(%esp)
	movl	$__Pshadow_Pstandard_Ccode_Mclass, (%esp)
	calll	__Pshadow_Pstandard_CClass_Mallocate
	movl	$__Pshadow_Pstandard_Ccode_Mclass, (%eax)
	movl	%edi, 4(%eax)
	movl	%eax, (%esp)
	calll	__Pshadow_Pstandard_CObject_Mcreate
	movl	$__Pshadow_Pstandard_Ccode_Mclass, (%esi)
	movl	%esi, %eax
	addl	$8, %esp
	popl	%esi
	popl	%edi
	ret
	.cfi_endproc

	.def	 __Pshadow_Pstandard_Cdouble_Mcreate;
	.scl	2;
	.type	32;
	.endef
	.globl	__Pshadow_Pstandard_Cdouble_Mcreate
	.align	16, 0x90
__Pshadow_Pstandard_Cdouble_Mcreate:    # @_Pshadow_Pstandard_Cdouble_Mcreate
	.cfi_startproc
# BB#0:
	pushl	%ebp
Ltmp645:
	.cfi_def_cfa_offset 8
Ltmp646:
	.cfi_offset %ebp, -8
	movl	%esp, %ebp
Ltmp647:
	.cfi_def_cfa_register %ebp
	pushl	%esi
	andl	$-8, %esp
	subl	$32, %esp
Ltmp648:
	.cfi_offset %esi, -12
	movl	8(%ebp), %esi
	movsd	8(%esi), %xmm0
	movsd	%xmm0, 8(%esp)          # 8-byte Spill
	movsd	%xmm0, 16(%esp)
	movl	$__Pshadow_Pstandard_Cdouble_Mclass, (%esp)
	calll	__Pshadow_Pstandard_CClass_Mallocate
	movl	$__Pshadow_Pstandard_Cdouble_Mclass, (%eax)
	movsd	8(%esp), %xmm0          # 8-byte Reload
	movsd	%xmm0, 8(%eax)
	movl	%eax, (%esp)
	calll	__Pshadow_Pstandard_CObject_Mcreate
	movl	$__Pshadow_Pstandard_Cdouble_Mclass, (%esi)
	movl	%esi, %eax
	leal	-4(%ebp), %esp
	popl	%esi
	popl	%ebp
	ret
	.cfi_endproc

	.def	 __Pshadow_Pstandard_Cfloat_Mcreate;
	.scl	2;
	.type	32;
	.endef
	.globl	__Pshadow_Pstandard_Cfloat_Mcreate
	.align	16, 0x90
__Pshadow_Pstandard_Cfloat_Mcreate:     # @_Pshadow_Pstandard_Cfloat_Mcreate
	.cfi_startproc
# BB#0:
	pushl	%esi
Ltmp651:
	.cfi_def_cfa_offset 8
	subl	$12, %esp
Ltmp652:
	.cfi_def_cfa_offset 20
Ltmp653:
	.cfi_offset %esi, -8
	movl	20(%esp), %esi
	movss	4(%esi), %xmm0
	movss	%xmm0, 4(%esp)          # 4-byte Spill
	movss	%xmm0, 8(%esp)
	movl	$__Pshadow_Pstandard_Cfloat_Mclass, (%esp)
	calll	__Pshadow_Pstandard_CClass_Mallocate
	movl	$__Pshadow_Pstandard_Cfloat_Mclass, (%eax)
	movss	4(%esp), %xmm0          # 4-byte Reload
	movss	%xmm0, 4(%eax)
	movl	%eax, (%esp)
	calll	__Pshadow_Pstandard_CObject_Mcreate
	movl	$__Pshadow_Pstandard_Cfloat_Mclass, (%esi)
	movl	%esi, %eax
	addl	$12, %esp
	popl	%esi
	ret
	.cfi_endproc

	.def	 __Pshadow_Pstandard_Cint_Mmin_Pshadow_Pstandard_Cint;
	.scl	2;
	.type	32;
	.endef
	.globl	__Pshadow_Pstandard_Cint_Mmin_Pshadow_Pstandard_Cint
	.align	16, 0x90
__Pshadow_Pstandard_Cint_Mmin_Pshadow_Pstandard_Cint: # @_Pshadow_Pstandard_Cint_Mmin_Pshadow_Pstandard_Cint
	.cfi_startproc
# BB#0:
	subl	$12, %esp
Ltmp655:
	.cfi_def_cfa_offset 16
	movl	16(%esp), %eax
	movl	4(%eax), %eax
	movl	%eax, 8(%esp)
	movl	20(%esp), %eax
	movl	%eax, 4(%esp)
	cmpl	%eax, 8(%esp)
	jge	LBB161_2
# BB#1:                                 # %_label0
	movl	8(%esp), %eax
	jmp	LBB161_3
LBB161_2:                               # %_label1
	movl	4(%esp), %eax
LBB161_3:                               # %_label1
	movl	%eax, (%esp)
	movl	(%esp), %eax
	addl	$12, %esp
	ret
	.cfi_endproc

	.def	 __Pshadow_Pstandard_Cint_Mmax_Pshadow_Pstandard_Cint;
	.scl	2;
	.type	32;
	.endef
	.globl	__Pshadow_Pstandard_Cint_Mmax_Pshadow_Pstandard_Cint
	.align	16, 0x90
__Pshadow_Pstandard_Cint_Mmax_Pshadow_Pstandard_Cint: # @_Pshadow_Pstandard_Cint_Mmax_Pshadow_Pstandard_Cint
	.cfi_startproc
# BB#0:
	subl	$12, %esp
Ltmp657:
	.cfi_def_cfa_offset 16
	movl	16(%esp), %eax
	movl	4(%eax), %eax
	movl	%eax, 8(%esp)
	movl	20(%esp), %eax
	movl	%eax, 4(%esp)
	cmpl	%eax, 8(%esp)
	jle	LBB162_2
# BB#1:                                 # %_label3
	movl	8(%esp), %eax
	jmp	LBB162_3
LBB162_2:                               # %_label4
	movl	4(%esp), %eax
LBB162_3:                               # %_label4
	movl	%eax, (%esp)
	movl	(%esp), %eax
	addl	$12, %esp
	ret
	.cfi_endproc

	.def	 __Pshadow_Pstandard_Cint_Mabs;
	.scl	2;
	.type	32;
	.endef
	.globl	__Pshadow_Pstandard_Cint_Mabs
	.align	16, 0x90
__Pshadow_Pstandard_Cint_Mabs:          # @_Pshadow_Pstandard_Cint_Mabs
	.cfi_startproc
# BB#0:
	subl	$8, %esp
Ltmp659:
	.cfi_def_cfa_offset 12
	movl	12(%esp), %eax
	movl	4(%eax), %eax
	movl	%eax, 4(%esp)
	testl	%eax, %eax
	js	LBB163_1
# BB#2:                                 # %_label7
	movl	4(%esp), %eax
	jmp	LBB163_3
LBB163_1:                               # %_label6
	xorl	%eax, %eax
	subl	4(%esp), %eax
LBB163_3:                               # %_label7
	movl	%eax, (%esp)
	movl	(%esp), %eax
	addl	$8, %esp
	ret
	.cfi_endproc

	.def	 __Pshadow_Pstandard_Cint_Mhash;
	.scl	2;
	.type	32;
	.endef
	.globl	__Pshadow_Pstandard_Cint_Mhash
	.align	16, 0x90
__Pshadow_Pstandard_Cint_Mhash:         # @_Pshadow_Pstandard_Cint_Mhash
	.cfi_startproc
# BB#0:
	pushl	%eax
Ltmp661:
	.cfi_def_cfa_offset 8
	movl	8(%esp), %eax
	movl	4(%eax), %eax
	movl	%eax, (%esp)
	popl	%edx
	ret
	.cfi_endproc

	.def	 __Pshadow_Pstandard_Cint_MtoString;
	.scl	2;
	.type	32;
	.endef
	.globl	__Pshadow_Pstandard_Cint_MtoString
	.align	16, 0x90
__Pshadow_Pstandard_Cint_MtoString:     # @_Pshadow_Pstandard_Cint_MtoString
	.cfi_startproc
# BB#0:
	pushl	%esi
Ltmp664:
	.cfi_def_cfa_offset 8
	subl	$12, %esp
Ltmp665:
	.cfi_def_cfa_offset 20
Ltmp666:
	.cfi_offset %esi, -8
	movl	20(%esp), %eax
	movl	4(%eax), %esi
	movl	%esi, 8(%esp)
	movl	$__Pshadow_Pstandard_Cint_Mclass, (%esp)
	calll	__Pshadow_Pstandard_CClass_Mallocate
	movl	%esi, 4(%eax)
	movl	%eax, (%esp)
	movl	$10, 4(%esp)
	calll	__Pshadow_Pstandard_Cint_MtoString_Pshadow_Pstandard_Cuint
	addl	$12, %esp
	popl	%esi
	ret
	.cfi_endproc

	.def	 __Pshadow_Pstandard_Cint_MtoString_Pshadow_Pstandard_Cuint;
	.scl	2;
	.type	32;
	.endef
	.globl	__Pshadow_Pstandard_Cint_MtoString_Pshadow_Pstandard_Cuint
	.align	16, 0x90
__Pshadow_Pstandard_Cint_MtoString_Pshadow_Pstandard_Cuint: # @_Pshadow_Pstandard_Cint_MtoString_Pshadow_Pstandard_Cuint
	.cfi_startproc
# BB#0:
	pushl	%edi
Ltmp670:
	.cfi_def_cfa_offset 8
	pushl	%esi
Ltmp671:
	.cfi_def_cfa_offset 12
	subl	$28, %esp
Ltmp672:
	.cfi_def_cfa_offset 40
Ltmp673:
	.cfi_offset %esi, -12
Ltmp674:
	.cfi_offset %edi, -8
	movl	40(%esp), %eax
	movl	4(%eax), %eax
	movl	%eax, 24(%esp)
	movl	44(%esp), %eax
	movl	%eax, 20(%esp)
	movl	24(%esp), %esi
	movl	$__Pshadow_Pstandard_Cint_Mclass, (%esp)
	calll	__Pshadow_Pstandard_CClass_Mallocate
	movl	%esi, 4(%eax)
	movl	%eax, (%esp)
	calll	__Pshadow_Pstandard_Cint_Mabs
	movl	%eax, %esi
	movl	20(%esp), %edi
	movl	$__Pshadow_Pstandard_Cuint_Mclass, (%esp)
	calll	__Pshadow_Pstandard_CClass_Mallocate
	movl	%esi, 4(%eax)
	movl	%edi, 4(%esp)
	movl	%eax, (%esp)
	calll	__Pshadow_Pstandard_Cuint_MtoString_Pshadow_Pstandard_Cuint
	movl	%eax, 16(%esp)
	cmpl	$0, 24(%esp)
	js	LBB166_2
# BB#1:                                 # %_label9
	movl	16(%esp), %eax
	jmp	LBB166_6
LBB166_2:                               # %_label10
	movl	$__Pshadow_Pstandard_Ccode_Mclass, (%esp)
	calll	__Pshadow_Pstandard_CClass_Mallocate
	movl	$__Pshadow_Pstandard_Ccode_Mclass, (%eax)
	movl	$45, 4(%eax)
	movl	(%eax), %eax
	movl	56(%eax), %esi
	movl	$__Pshadow_Pstandard_Ccode_Mclass, (%esp)
	calll	__Pshadow_Pstandard_CClass_Mallocate
	movl	$__Pshadow_Pstandard_Ccode_Mclass, (%eax)
	movl	$45, 4(%eax)
	movl	%eax, (%esp)
	calll	*%esi
	movl	%eax, %esi
	cmpl	$0, 16(%esp)
	je	LBB166_3
# BB#4:                                 # %_label13
	movl	16(%esp), %eax
	movl	(%eax), %ecx
	movl	%eax, (%esp)
	calll	*56(%ecx)
	movl	%eax, 12(%esp)
	jmp	LBB166_5
LBB166_3:                               # %_label12
	movl	$L__string1332, 12(%esp)
LBB166_5:                               # %_label14
	movl	12(%esp), %eax
	movl	%eax, 4(%esp)
	movl	%esi, (%esp)
	calll	__Pshadow_Pstandard_CString_Mconcatenate_Pshadow_Pstandard_CString
LBB166_6:                               # %_label14
	movl	%eax, 8(%esp)
	movl	8(%esp), %eax
	addl	$28, %esp
	popl	%esi
	popl	%edi
	ret
	.cfi_endproc

	.def	 __Pshadow_Pstandard_Cint_Mcreate;
	.scl	2;
	.type	32;
	.endef
	.globl	__Pshadow_Pstandard_Cint_Mcreate
	.align	16, 0x90
__Pshadow_Pstandard_Cint_Mcreate:       # @_Pshadow_Pstandard_Cint_Mcreate
	.cfi_startproc
# BB#0:
	pushl	%edi
Ltmp678:
	.cfi_def_cfa_offset 8
	pushl	%esi
Ltmp679:
	.cfi_def_cfa_offset 12
	subl	$8, %esp
Ltmp680:
	.cfi_def_cfa_offset 20
Ltmp681:
	.cfi_offset %esi, -12
Ltmp682:
	.cfi_offset %edi, -8
	movl	20(%esp), %esi
	movl	4(%esi), %edi
	movl	%edi, 4(%esp)
	movl	$__Pshadow_Pstandard_Cint_Mclass, (%esp)
	calll	__Pshadow_Pstandard_CClass_Mallocate
	movl	$__Pshadow_Pstandard_Cint_Mclass, (%eax)
	movl	%edi, 4(%eax)
	movl	%eax, (%esp)
	calll	__Pshadow_Pstandard_CObject_Mcreate
	movl	$__Pshadow_Pstandard_Cint_Mclass, (%esi)
	movl	%esi, %eax
	addl	$8, %esp
	popl	%esi
	popl	%edi
	ret
	.cfi_endproc

	.def	 __Pshadow_Pstandard_Clong_Mmin_Pshadow_Pstandard_Clong;
	.scl	2;
	.type	32;
	.endef
	.globl	__Pshadow_Pstandard_Clong_Mmin_Pshadow_Pstandard_Clong
	.align	16, 0x90
__Pshadow_Pstandard_Clong_Mmin_Pshadow_Pstandard_Clong: # @_Pshadow_Pstandard_Clong_Mmin_Pshadow_Pstandard_Clong
	.cfi_startproc
# BB#0:
	pushl	%ebp
Ltmp685:
	.cfi_def_cfa_offset 8
Ltmp686:
	.cfi_offset %ebp, -8
	movl	%esp, %ebp
Ltmp687:
	.cfi_def_cfa_register %ebp
	andl	$-8, %esp
	subl	$24, %esp
	movl	8(%ebp), %eax
	movsd	8(%eax), %xmm0
	movsd	%xmm0, 16(%esp)
	movl	16(%ebp), %ecx
	movl	%ecx, 12(%esp)
	movl	12(%ebp), %eax
	movl	%eax, 8(%esp)
	movl	16(%esp), %edx
	cmpl	%eax, %edx
	setae	%al
	cmpl	%ecx, 20(%esp)
	setge	%cl
	je	LBB168_2
# BB#1:
	movb	%cl, %al
LBB168_2:
	testb	%al, %al
	jne	LBB168_4
# BB#3:                                 # %_label0
	movsd	16(%esp), %xmm0
	jmp	LBB168_5
LBB168_4:                               # %_label1
	movsd	8(%esp), %xmm0
LBB168_5:                               # %_label1
	movsd	%xmm0, (%esp)
	movl	(%esp), %eax
	movl	4(%esp), %edx
	movl	%ebp, %esp
	popl	%ebp
	ret
	.cfi_endproc

	.def	 __Pshadow_Pstandard_Clong_Mmax_Pshadow_Pstandard_Clong;
	.scl	2;
	.type	32;
	.endef
	.globl	__Pshadow_Pstandard_Clong_Mmax_Pshadow_Pstandard_Clong
	.align	16, 0x90
__Pshadow_Pstandard_Clong_Mmax_Pshadow_Pstandard_Clong: # @_Pshadow_Pstandard_Clong_Mmax_Pshadow_Pstandard_Clong
	.cfi_startproc
# BB#0:
	pushl	%ebp
Ltmp690:
	.cfi_def_cfa_offset 8
Ltmp691:
	.cfi_offset %ebp, -8
	movl	%esp, %ebp
Ltmp692:
	.cfi_def_cfa_register %ebp
	andl	$-8, %esp
	subl	$24, %esp
	movl	8(%ebp), %eax
	movsd	8(%eax), %xmm0
	movsd	%xmm0, 16(%esp)
	movl	16(%ebp), %ecx
	movl	%ecx, 12(%esp)
	movl	12(%ebp), %eax
	movl	%eax, 8(%esp)
	movl	16(%esp), %edx
	cmpl	%eax, %edx
	setbe	%al
	cmpl	%ecx, 20(%esp)
	setle	%cl
	je	LBB169_2
# BB#1:
	movb	%cl, %al
LBB169_2:
	testb	%al, %al
	jne	LBB169_4
# BB#3:                                 # %_label3
	movsd	16(%esp), %xmm0
	jmp	LBB169_5
LBB169_4:                               # %_label4
	movsd	8(%esp), %xmm0
LBB169_5:                               # %_label4
	movsd	%xmm0, (%esp)
	movl	(%esp), %eax
	movl	4(%esp), %edx
	movl	%ebp, %esp
	popl	%ebp
	ret
	.cfi_endproc

	.def	 __Pshadow_Pstandard_Clong_Mabs;
	.scl	2;
	.type	32;
	.endef
	.globl	__Pshadow_Pstandard_Clong_Mabs
	.align	16, 0x90
__Pshadow_Pstandard_Clong_Mabs:         # @_Pshadow_Pstandard_Clong_Mabs
	.cfi_startproc
# BB#0:
	pushl	%ebp
Ltmp695:
	.cfi_def_cfa_offset 8
Ltmp696:
	.cfi_offset %ebp, -8
	movl	%esp, %ebp
Ltmp697:
	.cfi_def_cfa_register %ebp
	andl	$-8, %esp
	subl	$16, %esp
	movl	8(%ebp), %ecx
	movl	8(%ecx), %eax
	movl	12(%ecx), %ecx
	movl	%ecx, 12(%esp)
	movl	%eax, 8(%esp)
	testl	%ecx, %ecx
	js	LBB170_1
# BB#2:                                 # %_label7
	movsd	8(%esp), %xmm0
	movsd	%xmm0, (%esp)
	jmp	LBB170_3
LBB170_1:                               # %_label6
	xorl	%ecx, %ecx
	xorl	%eax, %eax
	subl	8(%esp), %eax
	sbbl	12(%esp), %ecx
	movl	%ecx, 4(%esp)
	movl	%eax, (%esp)
LBB170_3:                               # %_label8
	movl	(%esp), %eax
	movl	4(%esp), %edx
	movl	%ebp, %esp
	popl	%ebp
	ret
	.cfi_endproc

	.def	 __Pshadow_Pstandard_Clong_Mhash;
	.scl	2;
	.type	32;
	.endef
	.globl	__Pshadow_Pstandard_Clong_Mhash
	.align	16, 0x90
__Pshadow_Pstandard_Clong_Mhash:        # @_Pshadow_Pstandard_Clong_Mhash
	.cfi_startproc
# BB#0:
	pushl	%ebp
Ltmp700:
	.cfi_def_cfa_offset 8
Ltmp701:
	.cfi_offset %ebp, -8
	movl	%esp, %ebp
Ltmp702:
	.cfi_def_cfa_register %ebp
	andl	$-8, %esp
	subl	$8, %esp
	movl	8(%ebp), %eax
	movsd	8(%eax), %xmm0
	movsd	%xmm0, (%esp)
	movl	(%esp), %eax
	movl	%ebp, %esp
	popl	%ebp
	ret
	.cfi_endproc

	.def	 __Pshadow_Pstandard_Clong_MtoString;
	.scl	2;
	.type	32;
	.endef
	.globl	__Pshadow_Pstandard_Clong_MtoString
	.align	16, 0x90
__Pshadow_Pstandard_Clong_MtoString:    # @_Pshadow_Pstandard_Clong_MtoString
	.cfi_startproc
# BB#0:
	pushl	%ebp
Ltmp706:
	.cfi_def_cfa_offset 8
Ltmp707:
	.cfi_offset %ebp, -8
	movl	%esp, %ebp
Ltmp708:
	.cfi_def_cfa_register %ebp
	pushl	%edi
	pushl	%esi
	andl	$-8, %esp
	subl	$24, %esp
Ltmp709:
	.cfi_offset %esi, -16
Ltmp710:
	.cfi_offset %edi, -12
	movl	8(%ebp), %eax
	movl	8(%eax), %esi
	movl	12(%eax), %edi
	movl	%edi, 20(%esp)
	movl	%esi, 16(%esp)
	movl	$__Pshadow_Pstandard_Clong_Mclass, (%esp)
	calll	__Pshadow_Pstandard_CClass_Mallocate
	movl	%edi, 12(%eax)
	movl	%esi, 8(%eax)
	movl	%eax, (%esp)
	movl	$0, 8(%esp)
	movl	$10, 4(%esp)
	calll	__Pshadow_Pstandard_Clong_MtoString_Pshadow_Pstandard_Culong
	leal	-8(%ebp), %esp
	popl	%esi
	popl	%edi
	popl	%ebp
	ret
	.cfi_endproc

	.def	 __Pshadow_Pstandard_Clong_MtoString_Pshadow_Pstandard_Culong;
	.scl	2;
	.type	32;
	.endef
	.globl	__Pshadow_Pstandard_Clong_MtoString_Pshadow_Pstandard_Culong
	.align	16, 0x90
__Pshadow_Pstandard_Clong_MtoString_Pshadow_Pstandard_Culong: # @_Pshadow_Pstandard_Clong_MtoString_Pshadow_Pstandard_Culong
	.cfi_startproc
# BB#0:
	pushl	%ebp
Ltmp714:
	.cfi_def_cfa_offset 8
Ltmp715:
	.cfi_offset %ebp, -8
	movl	%esp, %ebp
Ltmp716:
	.cfi_def_cfa_register %ebp
	pushl	%ebx
	pushl	%edi
	pushl	%esi
	andl	$-8, %esp
	subl	$56, %esp
Ltmp717:
	.cfi_offset %esi, -20
Ltmp718:
	.cfi_offset %edi, -16
Ltmp719:
	.cfi_offset %ebx, -12
	movl	8(%ebp), %eax
	movsd	8(%eax), %xmm0
	movsd	%xmm0, 40(%esp)
	movl	16(%ebp), %eax
	movl	%eax, 36(%esp)
	movl	12(%ebp), %eax
	movl	%eax, 32(%esp)
	movl	40(%esp), %esi
	movl	44(%esp), %edi
	movl	$__Pshadow_Pstandard_Clong_Mclass, (%esp)
	calll	__Pshadow_Pstandard_CClass_Mallocate
	movl	%edi, 12(%eax)
	movl	%esi, 8(%eax)
	movl	%eax, (%esp)
	calll	__Pshadow_Pstandard_Clong_Mabs
	movl	%eax, %esi
	movl	%edx, %edi
	movl	32(%esp), %eax
	movl	%eax, 16(%esp)          # 4-byte Spill
	movl	36(%esp), %ebx
	movl	$__Pshadow_Pstandard_Culong_Mclass, (%esp)
	calll	__Pshadow_Pstandard_CClass_Mallocate
	movl	%edi, 12(%eax)
	movl	%esi, 8(%eax)
	movl	%ebx, 8(%esp)
	movl	16(%esp), %ecx          # 4-byte Reload
	movl	%ecx, 4(%esp)
	movl	%eax, (%esp)
	calll	__Pshadow_Pstandard_Culong_MtoString_Pshadow_Pstandard_Culong
	movl	%eax, 28(%esp)
	cmpl	$0, 44(%esp)
	js	LBB173_2
# BB#1:                                 # %_label9
	movl	28(%esp), %eax
	jmp	LBB173_6
LBB173_2:                               # %_label10
	movl	$__Pshadow_Pstandard_Ccode_Mclass, (%esp)
	calll	__Pshadow_Pstandard_CClass_Mallocate
	movl	$__Pshadow_Pstandard_Ccode_Mclass, (%eax)
	movl	$45, 4(%eax)
	movl	(%eax), %eax
	movl	56(%eax), %esi
	movl	$__Pshadow_Pstandard_Ccode_Mclass, (%esp)
	calll	__Pshadow_Pstandard_CClass_Mallocate
	movl	$__Pshadow_Pstandard_Ccode_Mclass, (%eax)
	movl	$45, 4(%eax)
	movl	%eax, (%esp)
	calll	*%esi
	movl	%eax, %esi
	cmpl	$0, 28(%esp)
	je	LBB173_3
# BB#4:                                 # %_label13
	movl	28(%esp), %eax
	movl	(%eax), %ecx
	movl	%eax, (%esp)
	calll	*56(%ecx)
	movl	%eax, 24(%esp)
	jmp	LBB173_5
LBB173_3:                               # %_label12
	movl	$L__string1352, 24(%esp)
LBB173_5:                               # %_label14
	movl	24(%esp), %eax
	movl	%eax, 4(%esp)
	movl	%esi, (%esp)
	calll	__Pshadow_Pstandard_CString_Mconcatenate_Pshadow_Pstandard_CString
LBB173_6:                               # %_label14
	movl	%eax, 20(%esp)
	movl	20(%esp), %eax
	leal	-12(%ebp), %esp
	popl	%esi
	popl	%edi
	popl	%ebx
	popl	%ebp
	ret
	.cfi_endproc

	.def	 __Pshadow_Pstandard_Clong_Mcreate;
	.scl	2;
	.type	32;
	.endef
	.globl	__Pshadow_Pstandard_Clong_Mcreate
	.align	16, 0x90
__Pshadow_Pstandard_Clong_Mcreate:      # @_Pshadow_Pstandard_Clong_Mcreate
	.cfi_startproc
# BB#0:
	pushl	%ebp
Ltmp723:
	.cfi_def_cfa_offset 8
Ltmp724:
	.cfi_offset %ebp, -8
	movl	%esp, %ebp
Ltmp725:
	.cfi_def_cfa_register %ebp
	pushl	%ebx
	pushl	%edi
	pushl	%esi
	andl	$-8, %esp
	subl	$24, %esp
Ltmp726:
	.cfi_offset %esi, -20
Ltmp727:
	.cfi_offset %edi, -16
Ltmp728:
	.cfi_offset %ebx, -12
	movl	8(%ebp), %esi
	movl	8(%esi), %edi
	movl	12(%esi), %ebx
	movl	%ebx, 12(%esp)
	movl	%edi, 8(%esp)
	movl	$__Pshadow_Pstandard_Clong_Mclass, (%esp)
	calll	__Pshadow_Pstandard_CClass_Mallocate
	movl	$__Pshadow_Pstandard_Clong_Mclass, (%eax)
	movl	%ebx, 12(%eax)
	movl	%edi, 8(%eax)
	movl	%eax, (%esp)
	calll	__Pshadow_Pstandard_CObject_Mcreate
	movl	$__Pshadow_Pstandard_Clong_Mclass, (%esi)
	movl	%esi, %eax
	leal	-12(%ebp), %esp
	popl	%esi
	popl	%edi
	popl	%ebx
	popl	%ebp
	ret
	.cfi_endproc

	.def	 __Pshadow_Pstandard_Cshort_Mcreate;
	.scl	2;
	.type	32;
	.endef
	.globl	__Pshadow_Pstandard_Cshort_Mcreate
	.align	16, 0x90
__Pshadow_Pstandard_Cshort_Mcreate:     # @_Pshadow_Pstandard_Cshort_Mcreate
	.cfi_startproc
# BB#0:
	pushl	%edi
Ltmp732:
	.cfi_def_cfa_offset 8
	pushl	%esi
Ltmp733:
	.cfi_def_cfa_offset 12
	subl	$8, %esp
Ltmp734:
	.cfi_def_cfa_offset 20
Ltmp735:
	.cfi_offset %esi, -12
Ltmp736:
	.cfi_offset %edi, -8
	movl	20(%esp), %esi
	movw	4(%esi), %di
	movw	%di, 6(%esp)
	movl	$__Pshadow_Pstandard_Cshort_Mclass, (%esp)
	calll	__Pshadow_Pstandard_CClass_Mallocate
	movl	$__Pshadow_Pstandard_Cshort_Mclass, (%eax)
	movw	%di, 4(%eax)
	movl	%eax, (%esp)
	calll	__Pshadow_Pstandard_CObject_Mcreate
	movl	$__Pshadow_Pstandard_Cshort_Mclass, (%esi)
	movl	%esi, %eax
	addl	$8, %esp
	popl	%esi
	popl	%edi
	ret
	.cfi_endproc

	.def	 __Pshadow_Pstandard_Cubyte_Mdigit_Pshadow_Pstandard_Cubyte;
	.scl	2;
	.type	32;
	.endef
	.globl	__Pshadow_Pstandard_Cubyte_Mdigit_Pshadow_Pstandard_Cubyte
	.align	16, 0x90
__Pshadow_Pstandard_Cubyte_Mdigit_Pshadow_Pstandard_Cubyte: # @_Pshadow_Pstandard_Cubyte_Mdigit_Pshadow_Pstandard_Cubyte
	.cfi_startproc
# BB#0:
	pushl	%eax
Ltmp738:
	.cfi_def_cfa_offset 8
	movl	8(%esp), %eax
	movb	4(%eax), %al
	movb	%al, 3(%esp)
	movb	12(%esp), %al
	movb	%al, 2(%esp)
	cmpb	$9, %al
	ja	LBB176_2
# BB#1:                                 # %_label0
	movsbl	2(%esp), %eax
	addl	$48, %eax
	popl	%edx
	ret
LBB176_2:                               # %_label2
	movsbl	2(%esp), %eax
	addl	$87, %eax
	popl	%edx
	ret
	.cfi_endproc

	.def	 __Pshadow_Pstandard_Cubyte_MtoString;
	.scl	2;
	.type	32;
	.endef
	.globl	__Pshadow_Pstandard_Cubyte_MtoString
	.align	16, 0x90
__Pshadow_Pstandard_Cubyte_MtoString:   # @_Pshadow_Pstandard_Cubyte_MtoString
	.cfi_startproc
# BB#0:
	pushl	%ebx
Ltmp741:
	.cfi_def_cfa_offset 8
	subl	$12, %esp
Ltmp742:
	.cfi_def_cfa_offset 20
Ltmp743:
	.cfi_offset %ebx, -8
	movl	20(%esp), %eax
	movb	4(%eax), %bl
	movb	%bl, 11(%esp)
	movl	$__Pshadow_Pstandard_Cubyte_Mclass, (%esp)
	calll	__Pshadow_Pstandard_CClass_Mallocate
	movb	%bl, 4(%eax)
	movl	%eax, (%esp)
	movl	$10, 4(%esp)
	calll	__Pshadow_Pstandard_Cubyte_MtoString_Pshadow_Pstandard_Cubyte
	addl	$12, %esp
	popl	%ebx
	ret
	.cfi_endproc

	.def	 __Pshadow_Pstandard_Cubyte_MtoString_Pshadow_Pstandard_Cubyte;
	.scl	2;
	.type	32;
	.endef
	.globl	__Pshadow_Pstandard_Cubyte_MtoString_Pshadow_Pstandard_Cubyte
	.align	16, 0x90
__Pshadow_Pstandard_Cubyte_MtoString_Pshadow_Pstandard_Cubyte: # @_Pshadow_Pstandard_Cubyte_MtoString_Pshadow_Pstandard_Cubyte
	.cfi_startproc
# BB#0:
	pushl	%ebx
Ltmp748:
	.cfi_def_cfa_offset 8
	pushl	%edi
Ltmp749:
	.cfi_def_cfa_offset 12
	pushl	%esi
Ltmp750:
	.cfi_def_cfa_offset 16
	subl	$20, %esp
Ltmp751:
	.cfi_def_cfa_offset 36
Ltmp752:
	.cfi_offset %esi, -16
Ltmp753:
	.cfi_offset %edi, -12
Ltmp754:
	.cfi_offset %ebx, -8
	movl	36(%esp), %eax
	movb	4(%eax), %al
	movb	%al, 19(%esp)
	movb	40(%esp), %al
	movb	%al, 18(%esp)
	movl	$__Pshadow_Pstandard_CMutableString_Mclass, (%esp)
	calll	__Pshadow_Pstandard_CClass_Mallocate
	movl	%eax, %esi
	movl	%esi, (%esp)
	calll	__Pshadow_Pstandard_CMutableString_Mcreate
	movl	%esi, 12(%esp)
	movb	19(%esp), %al
	movb	%al, 11(%esp)
	.align	16, 0x90
LBB178_1:                               # %_label4
                                        # =>This Inner Loop Header: Depth=1
	movl	12(%esp), %eax
	movl	(%eax), %eax
	movl	60(%eax), %edi
	movzbl	11(%esp), %eax
                                        # kill: EAX<def> EAX<kill> AX<def>
	divb	18(%esp)
	movb	%ah, %bl
	movb	19(%esp), %bh
	movl	$__Pshadow_Pstandard_Cubyte_Mclass, (%esp)
	calll	__Pshadow_Pstandard_CClass_Mallocate
	movb	%bh, 4(%eax)
	movzbl	%bl, %ecx
	movl	%ecx, 4(%esp)
	movl	%eax, (%esp)
	calll	__Pshadow_Pstandard_Cubyte_Mdigit_Pshadow_Pstandard_Cubyte
	movl	%eax, %esi
	movl	12(%esp), %ebx
	movl	$__Pshadow_Pstandard_Ccode_Mclass, (%esp)
	calll	__Pshadow_Pstandard_CClass_Mallocate
	movl	$__Pshadow_Pstandard_Ccode_Mclass, (%eax)
	movl	%esi, 4(%eax)
	movl	%eax, 4(%esp)
	movl	%ebx, (%esp)
	calll	*%edi
	movzbl	11(%esp), %eax
                                        # kill: EAX<def> EAX<kill> AX<def>
	divb	18(%esp)
	movb	%al, 11(%esp)
	testb	%al, %al
	jne	LBB178_1
# BB#2:                                 # %_label5
	movl	12(%esp), %eax
	movl	(%eax), %ecx
	movl	%eax, (%esp)
	calll	*80(%ecx)
	movl	(%eax), %ecx
	movl	%eax, (%esp)
	calll	*56(%ecx)
	addl	$20, %esp
	popl	%esi
	popl	%edi
	popl	%ebx
	ret
	.cfi_endproc

	.def	 __Pshadow_Pstandard_Cubyte_Mcreate;
	.scl	2;
	.type	32;
	.endef
	.globl	__Pshadow_Pstandard_Cubyte_Mcreate
	.align	16, 0x90
__Pshadow_Pstandard_Cubyte_Mcreate:     # @_Pshadow_Pstandard_Cubyte_Mcreate
	.cfi_startproc
# BB#0:
	pushl	%ebx
Ltmp758:
	.cfi_def_cfa_offset 8
	pushl	%esi
Ltmp759:
	.cfi_def_cfa_offset 12
	subl	$8, %esp
Ltmp760:
	.cfi_def_cfa_offset 20
Ltmp761:
	.cfi_offset %esi, -12
Ltmp762:
	.cfi_offset %ebx, -8
	movl	20(%esp), %esi
	movb	4(%esi), %bl
	movb	%bl, 7(%esp)
	movl	$__Pshadow_Pstandard_Cubyte_Mclass, (%esp)
	calll	__Pshadow_Pstandard_CClass_Mallocate
	movl	$__Pshadow_Pstandard_Cubyte_Mclass, (%eax)
	movb	%bl, 4(%eax)
	movl	%eax, (%esp)
	calll	__Pshadow_Pstandard_CObject_Mcreate
	movl	$__Pshadow_Pstandard_Cubyte_Mclass, (%esi)
	movl	%esi, %eax
	addl	$8, %esp
	popl	%esi
	popl	%ebx
	ret
	.cfi_endproc

	.def	 __Pshadow_Pstandard_Cuint_Mdigit_Pshadow_Pstandard_Cuint;
	.scl	2;
	.type	32;
	.endef
	.globl	__Pshadow_Pstandard_Cuint_Mdigit_Pshadow_Pstandard_Cuint
	.align	16, 0x90
__Pshadow_Pstandard_Cuint_Mdigit_Pshadow_Pstandard_Cuint: # @_Pshadow_Pstandard_Cuint_Mdigit_Pshadow_Pstandard_Cuint
	.cfi_startproc
# BB#0:
	subl	$8, %esp
Ltmp764:
	.cfi_def_cfa_offset 12
	movl	12(%esp), %eax
	movl	4(%eax), %eax
	movl	%eax, 4(%esp)
	movl	16(%esp), %eax
	movl	%eax, (%esp)
	cmpl	$9, %eax
	ja	LBB180_2
# BB#1:                                 # %_label0
	movl	(%esp), %eax
	addl	$48, %eax
	addl	$8, %esp
	ret
LBB180_2:                               # %_label2
	movl	(%esp), %eax
	addl	$87, %eax
	addl	$8, %esp
	ret
	.cfi_endproc

	.def	 __Pshadow_Pstandard_Cuint_Mmin_Pshadow_Pstandard_Cuint;
	.scl	2;
	.type	32;
	.endef
	.globl	__Pshadow_Pstandard_Cuint_Mmin_Pshadow_Pstandard_Cuint
	.align	16, 0x90
__Pshadow_Pstandard_Cuint_Mmin_Pshadow_Pstandard_Cuint: # @_Pshadow_Pstandard_Cuint_Mmin_Pshadow_Pstandard_Cuint
	.cfi_startproc
# BB#0:
	subl	$12, %esp
Ltmp766:
	.cfi_def_cfa_offset 16
	movl	16(%esp), %eax
	movl	4(%eax), %eax
	movl	%eax, 8(%esp)
	movl	20(%esp), %eax
	movl	%eax, 4(%esp)
	cmpl	%eax, 8(%esp)
	jae	LBB181_2
# BB#1:                                 # %_label3
	movl	8(%esp), %eax
	jmp	LBB181_3
LBB181_2:                               # %_label4
	movl	4(%esp), %eax
LBB181_3:                               # %_label4
	movl	%eax, (%esp)
	movl	(%esp), %eax
	addl	$12, %esp
	ret
	.cfi_endproc

	.def	 __Pshadow_Pstandard_Cuint_Mmax_Pshadow_Pstandard_Cuint;
	.scl	2;
	.type	32;
	.endef
	.globl	__Pshadow_Pstandard_Cuint_Mmax_Pshadow_Pstandard_Cuint
	.align	16, 0x90
__Pshadow_Pstandard_Cuint_Mmax_Pshadow_Pstandard_Cuint: # @_Pshadow_Pstandard_Cuint_Mmax_Pshadow_Pstandard_Cuint
	.cfi_startproc
# BB#0:
	subl	$12, %esp
Ltmp768:
	.cfi_def_cfa_offset 16
	movl	16(%esp), %eax
	movl	4(%eax), %eax
	movl	%eax, 8(%esp)
	movl	20(%esp), %eax
	movl	%eax, 4(%esp)
	cmpl	%eax, 8(%esp)
	jbe	LBB182_2
# BB#1:                                 # %_label6
	movl	8(%esp), %eax
	jmp	LBB182_3
LBB182_2:                               # %_label7
	movl	4(%esp), %eax
LBB182_3:                               # %_label7
	movl	%eax, (%esp)
	movl	(%esp), %eax
	addl	$12, %esp
	ret
	.cfi_endproc

	.def	 __Pshadow_Pstandard_Cuint_Mhash;
	.scl	2;
	.type	32;
	.endef
	.globl	__Pshadow_Pstandard_Cuint_Mhash
	.align	16, 0x90
__Pshadow_Pstandard_Cuint_Mhash:        # @_Pshadow_Pstandard_Cuint_Mhash
	.cfi_startproc
# BB#0:
	pushl	%eax
Ltmp770:
	.cfi_def_cfa_offset 8
	movl	8(%esp), %eax
	movl	4(%eax), %eax
	movl	%eax, (%esp)
	popl	%edx
	ret
	.cfi_endproc

	.def	 __Pshadow_Pstandard_Cuint_MtoString;
	.scl	2;
	.type	32;
	.endef
	.globl	__Pshadow_Pstandard_Cuint_MtoString
	.align	16, 0x90
__Pshadow_Pstandard_Cuint_MtoString:    # @_Pshadow_Pstandard_Cuint_MtoString
	.cfi_startproc
# BB#0:
	pushl	%esi
Ltmp773:
	.cfi_def_cfa_offset 8
	subl	$12, %esp
Ltmp774:
	.cfi_def_cfa_offset 20
Ltmp775:
	.cfi_offset %esi, -8
	movl	20(%esp), %eax
	movl	4(%eax), %esi
	movl	%esi, 8(%esp)
	movl	$__Pshadow_Pstandard_Cuint_Mclass, (%esp)
	calll	__Pshadow_Pstandard_CClass_Mallocate
	movl	%esi, 4(%eax)
	movl	%eax, (%esp)
	movl	$10, 4(%esp)
	calll	__Pshadow_Pstandard_Cuint_MtoString_Pshadow_Pstandard_Cuint
	addl	$12, %esp
	popl	%esi
	ret
	.cfi_endproc

	.def	 __Pshadow_Pstandard_Cuint_MtoString_Pshadow_Pstandard_Cuint;
	.scl	2;
	.type	32;
	.endef
	.globl	__Pshadow_Pstandard_Cuint_MtoString_Pshadow_Pstandard_Cuint
	.align	16, 0x90
__Pshadow_Pstandard_Cuint_MtoString_Pshadow_Pstandard_Cuint: # @_Pshadow_Pstandard_Cuint_MtoString_Pshadow_Pstandard_Cuint
	.cfi_startproc
# BB#0:
	pushl	%ebx
Ltmp780:
	.cfi_def_cfa_offset 8
	pushl	%edi
Ltmp781:
	.cfi_def_cfa_offset 12
	pushl	%esi
Ltmp782:
	.cfi_def_cfa_offset 16
	subl	$24, %esp
Ltmp783:
	.cfi_def_cfa_offset 40
Ltmp784:
	.cfi_offset %esi, -16
Ltmp785:
	.cfi_offset %edi, -12
Ltmp786:
	.cfi_offset %ebx, -8
	movl	40(%esp), %eax
	movl	4(%eax), %eax
	movl	%eax, 20(%esp)
	movl	44(%esp), %eax
	movl	%eax, 16(%esp)
	movl	$__Pshadow_Pstandard_CMutableString_Mclass, (%esp)
	calll	__Pshadow_Pstandard_CClass_Mallocate
	movl	%eax, %esi
	movl	%esi, (%esp)
	calll	__Pshadow_Pstandard_CMutableString_Mcreate
	movl	%esi, 12(%esp)
	movl	20(%esp), %eax
	movl	%eax, 8(%esp)
	.align	16, 0x90
LBB185_1:                               # %_label10
                                        # =>This Inner Loop Header: Depth=1
	movl	8(%esp), %eax
	xorl	%edx, %edx
	divl	16(%esp)
	movl	%edx, %esi
	movl	12(%esp), %eax
	movl	(%eax), %eax
	movl	60(%eax), %edi
	movl	20(%esp), %ebx
	movl	$__Pshadow_Pstandard_Cuint_Mclass, (%esp)
	calll	__Pshadow_Pstandard_CClass_Mallocate
	movl	%ebx, 4(%eax)
	movl	%esi, 4(%esp)
	movl	%eax, (%esp)
	calll	__Pshadow_Pstandard_Cuint_Mdigit_Pshadow_Pstandard_Cuint
	movl	%eax, %esi
	movl	12(%esp), %ebx
	movl	$__Pshadow_Pstandard_Ccode_Mclass, (%esp)
	calll	__Pshadow_Pstandard_CClass_Mallocate
	movl	$__Pshadow_Pstandard_Ccode_Mclass, (%eax)
	movl	%esi, 4(%eax)
	movl	%eax, 4(%esp)
	movl	%ebx, (%esp)
	calll	*%edi
	movl	8(%esp), %eax
	xorl	%edx, %edx
	divl	16(%esp)
	movl	%eax, 8(%esp)
	testl	%eax, %eax
	jne	LBB185_1
# BB#2:                                 # %_label11
	movl	12(%esp), %eax
	movl	(%eax), %ecx
	movl	%eax, (%esp)
	calll	*80(%ecx)
	movl	(%eax), %ecx
	movl	%eax, (%esp)
	calll	*56(%ecx)
	addl	$24, %esp
	popl	%esi
	popl	%edi
	popl	%ebx
	ret
	.cfi_endproc

	.def	 __Pshadow_Pstandard_Cuint_Mcreate;
	.scl	2;
	.type	32;
	.endef
	.globl	__Pshadow_Pstandard_Cuint_Mcreate
	.align	16, 0x90
__Pshadow_Pstandard_Cuint_Mcreate:      # @_Pshadow_Pstandard_Cuint_Mcreate
	.cfi_startproc
# BB#0:
	pushl	%edi
Ltmp790:
	.cfi_def_cfa_offset 8
	pushl	%esi
Ltmp791:
	.cfi_def_cfa_offset 12
	subl	$8, %esp
Ltmp792:
	.cfi_def_cfa_offset 20
Ltmp793:
	.cfi_offset %esi, -12
Ltmp794:
	.cfi_offset %edi, -8
	movl	20(%esp), %esi
	movl	4(%esi), %edi
	movl	%edi, 4(%esp)
	movl	$__Pshadow_Pstandard_Cuint_Mclass, (%esp)
	calll	__Pshadow_Pstandard_CClass_Mallocate
	movl	$__Pshadow_Pstandard_Cuint_Mclass, (%eax)
	movl	%edi, 4(%eax)
	movl	%eax, (%esp)
	calll	__Pshadow_Pstandard_CObject_Mcreate
	movl	$__Pshadow_Pstandard_Cuint_Mclass, (%esi)
	movl	%esi, %eax
	addl	$8, %esp
	popl	%esi
	popl	%edi
	ret
	.cfi_endproc

	.def	 __Pshadow_Pstandard_Culong_Mdigit_Pshadow_Pstandard_Culong;
	.scl	2;
	.type	32;
	.endef
	.globl	__Pshadow_Pstandard_Culong_Mdigit_Pshadow_Pstandard_Culong
	.align	16, 0x90
__Pshadow_Pstandard_Culong_Mdigit_Pshadow_Pstandard_Culong: # @_Pshadow_Pstandard_Culong_Mdigit_Pshadow_Pstandard_Culong
	.cfi_startproc
# BB#0:
	pushl	%ebp
Ltmp797:
	.cfi_def_cfa_offset 8
Ltmp798:
	.cfi_offset %ebp, -8
	movl	%esp, %ebp
Ltmp799:
	.cfi_def_cfa_register %ebp
	andl	$-8, %esp
	subl	$16, %esp
	movl	8(%ebp), %eax
	movsd	8(%eax), %xmm0
	movsd	%xmm0, 8(%esp)
	movl	12(%ebp), %eax
	movl	%eax, (%esp)
	cmpl	$9, %eax
	seta	%al
	movl	16(%ebp), %ecx
	movl	%ecx, 4(%esp)
	testl	%ecx, %ecx
	setne	%cl
	je	LBB187_2
# BB#1:
	movb	%cl, %al
LBB187_2:
	testb	%al, %al
	jne	LBB187_5
# BB#3:                                 # %_label0
	movl	(%esp), %eax
	addl	$48, %eax
	jmp	LBB187_4
LBB187_5:                               # %_label2
	movl	(%esp), %eax
	addl	$87, %eax
LBB187_4:                               # %_label0
	movl	%ebp, %esp
	popl	%ebp
	ret
	.cfi_endproc

	.def	 __Pshadow_Pstandard_Culong_MtoString;
	.scl	2;
	.type	32;
	.endef
	.globl	__Pshadow_Pstandard_Culong_MtoString
	.align	16, 0x90
__Pshadow_Pstandard_Culong_MtoString:   # @_Pshadow_Pstandard_Culong_MtoString
	.cfi_startproc
# BB#0:
	pushl	%ebp
Ltmp803:
	.cfi_def_cfa_offset 8
Ltmp804:
	.cfi_offset %ebp, -8
	movl	%esp, %ebp
Ltmp805:
	.cfi_def_cfa_register %ebp
	pushl	%edi
	pushl	%esi
	andl	$-8, %esp
	subl	$24, %esp
Ltmp806:
	.cfi_offset %esi, -16
Ltmp807:
	.cfi_offset %edi, -12
	movl	8(%ebp), %eax
	movl	8(%eax), %esi
	movl	12(%eax), %edi
	movl	%edi, 20(%esp)
	movl	%esi, 16(%esp)
	movl	$__Pshadow_Pstandard_Culong_Mclass, (%esp)
	calll	__Pshadow_Pstandard_CClass_Mallocate
	movl	%edi, 12(%eax)
	movl	%esi, 8(%eax)
	movl	%eax, (%esp)
	movl	$0, 8(%esp)
	movl	$10, 4(%esp)
	calll	__Pshadow_Pstandard_Culong_MtoString_Pshadow_Pstandard_Culong
	leal	-8(%ebp), %esp
	popl	%esi
	popl	%edi
	popl	%ebp
	ret
	.cfi_endproc

	.def	 __Pshadow_Pstandard_Culong_MtoString_Pshadow_Pstandard_Culong;
	.scl	2;
	.type	32;
	.endef
	.globl	__Pshadow_Pstandard_Culong_MtoString_Pshadow_Pstandard_Culong
	.align	16, 0x90
__Pshadow_Pstandard_Culong_MtoString_Pshadow_Pstandard_Culong: # @_Pshadow_Pstandard_Culong_MtoString_Pshadow_Pstandard_Culong
	.cfi_startproc
# BB#0:
	pushl	%ebp
Ltmp811:
	.cfi_def_cfa_offset 8
Ltmp812:
	.cfi_offset %ebp, -8
	movl	%esp, %ebp
Ltmp813:
	.cfi_def_cfa_register %ebp
	pushl	%ebx
	pushl	%edi
	pushl	%esi
	andl	$-8, %esp
	subl	$80, %esp
Ltmp814:
	.cfi_offset %esi, -20
Ltmp815:
	.cfi_offset %edi, -16
Ltmp816:
	.cfi_offset %ebx, -12
	movl	8(%ebp), %eax
	movsd	8(%eax), %xmm0
	movsd	%xmm0, 64(%esp)
	movl	16(%ebp), %eax
	movl	%eax, 60(%esp)
	movl	12(%ebp), %eax
	movl	%eax, 56(%esp)
	movl	$__Pshadow_Pstandard_CMutableString_Mclass, (%esp)
	calll	__Pshadow_Pstandard_CClass_Mallocate
	movl	%eax, %esi
	movl	%esi, (%esp)
	calll	__Pshadow_Pstandard_CMutableString_Mcreate
	movl	%esi, 52(%esp)
	movsd	64(%esp), %xmm0
	movsd	%xmm0, 40(%esp)
	.align	16, 0x90
LBB189_1:                               # %_label4
                                        # =>This Inner Loop Header: Depth=1
	movl	52(%esp), %eax
	movl	(%eax), %eax
	movl	60(%eax), %eax
	movl	%eax, 36(%esp)          # 4-byte Spill
	movl	64(%esp), %eax
	movl	%eax, 32(%esp)          # 4-byte Spill
	movl	68(%esp), %eax
	movl	%eax, 28(%esp)          # 4-byte Spill
	movl	40(%esp), %eax
	movl	%eax, 24(%esp)          # 4-byte Spill
	movl	44(%esp), %eax
	movl	%eax, 20(%esp)          # 4-byte Spill
	movl	56(%esp), %ebx
	movl	60(%esp), %edi
	movl	$__Pshadow_Pstandard_Culong_Mclass, (%esp)
	calll	__Pshadow_Pstandard_CClass_Mallocate
	movl	%eax, %esi
	movl	%edi, 12(%esp)
	movl	%ebx, 8(%esp)
	movl	20(%esp), %eax          # 4-byte Reload
	movl	%eax, 4(%esp)
	movl	24(%esp), %eax          # 4-byte Reload
	movl	%eax, (%esp)
	movl	28(%esp), %eax          # 4-byte Reload
	movl	%eax, 12(%esi)
	movl	32(%esp), %eax          # 4-byte Reload
	movl	%eax, 8(%esi)
	calll	___umoddi3
	movl	%edx, 8(%esp)
	movl	%eax, 4(%esp)
	movl	%esi, (%esp)
	calll	__Pshadow_Pstandard_Culong_Mdigit_Pshadow_Pstandard_Culong
	movl	%eax, %esi
	movl	52(%esp), %edi
	movl	$__Pshadow_Pstandard_Ccode_Mclass, (%esp)
	calll	__Pshadow_Pstandard_CClass_Mallocate
	movl	$__Pshadow_Pstandard_Ccode_Mclass, (%eax)
	movl	%esi, 4(%eax)
	movl	%eax, 4(%esp)
	movl	%edi, (%esp)
	calll	*36(%esp)               # 4-byte Folded Reload
	movl	56(%esp), %eax
	movl	60(%esp), %ecx
	movl	%ecx, 12(%esp)
	movl	%eax, 8(%esp)
	movl	40(%esp), %eax
	movl	44(%esp), %ecx
	movl	%ecx, 4(%esp)
	movl	%eax, (%esp)
	calll	___udivdi3
	movl	%edx, 44(%esp)
	movl	%eax, 40(%esp)
	orl	%edx, %eax
	jne	LBB189_1
# BB#2:                                 # %_label5
	movl	52(%esp), %eax
	movl	(%eax), %ecx
	movl	%eax, (%esp)
	calll	*80(%ecx)
	movl	(%eax), %ecx
	movl	%eax, (%esp)
	calll	*56(%ecx)
	leal	-12(%ebp), %esp
	popl	%esi
	popl	%edi
	popl	%ebx
	popl	%ebp
	ret
	.cfi_endproc

	.def	 __Pshadow_Pstandard_Culong_Mcreate;
	.scl	2;
	.type	32;
	.endef
	.globl	__Pshadow_Pstandard_Culong_Mcreate
	.align	16, 0x90
__Pshadow_Pstandard_Culong_Mcreate:     # @_Pshadow_Pstandard_Culong_Mcreate
	.cfi_startproc
# BB#0:
	pushl	%ebp
Ltmp820:
	.cfi_def_cfa_offset 8
Ltmp821:
	.cfi_offset %ebp, -8
	movl	%esp, %ebp
Ltmp822:
	.cfi_def_cfa_register %ebp
	pushl	%ebx
	pushl	%edi
	pushl	%esi
	andl	$-8, %esp
	subl	$24, %esp
Ltmp823:
	.cfi_offset %esi, -20
Ltmp824:
	.cfi_offset %edi, -16
Ltmp825:
	.cfi_offset %ebx, -12
	movl	8(%ebp), %esi
	movl	8(%esi), %edi
	movl	12(%esi), %ebx
	movl	%ebx, 12(%esp)
	movl	%edi, 8(%esp)
	movl	$__Pshadow_Pstandard_Culong_Mclass, (%esp)
	calll	__Pshadow_Pstandard_CClass_Mallocate
	movl	$__Pshadow_Pstandard_Culong_Mclass, (%eax)
	movl	%ebx, 12(%eax)
	movl	%edi, 8(%eax)
	movl	%eax, (%esp)
	calll	__Pshadow_Pstandard_CObject_Mcreate
	movl	$__Pshadow_Pstandard_Culong_Mclass, (%esi)
	movl	%esi, %eax
	leal	-12(%ebp), %esp
	popl	%esi
	popl	%edi
	popl	%ebx
	popl	%ebp
	ret
	.cfi_endproc

	.def	 __Pshadow_Pstandard_Cushort_Mcreate;
	.scl	2;
	.type	32;
	.endef
	.globl	__Pshadow_Pstandard_Cushort_Mcreate
	.align	16, 0x90
__Pshadow_Pstandard_Cushort_Mcreate:    # @_Pshadow_Pstandard_Cushort_Mcreate
	.cfi_startproc
# BB#0:
	pushl	%edi
Ltmp829:
	.cfi_def_cfa_offset 8
	pushl	%esi
Ltmp830:
	.cfi_def_cfa_offset 12
	subl	$8, %esp
Ltmp831:
	.cfi_def_cfa_offset 20
Ltmp832:
	.cfi_offset %esi, -12
Ltmp833:
	.cfi_offset %edi, -8
	movl	20(%esp), %esi
	movw	4(%esi), %di
	movw	%di, 6(%esp)
	movl	$__Pshadow_Pstandard_Cushort_Mclass, (%esp)
	calll	__Pshadow_Pstandard_CClass_Mallocate
	movl	$__Pshadow_Pstandard_Cushort_Mclass, (%eax)
	movw	%di, 4(%eax)
	movl	%eax, (%esp)
	calll	__Pshadow_Pstandard_CObject_Mcreate
	movl	$__Pshadow_Pstandard_Cushort_Mclass, (%esi)
	movl	%esi, %eax
	addl	$8, %esp
	popl	%esi
	popl	%edi
	ret
	.cfi_endproc

	.def	 __Pshadow_Pio_CConsole_MprintError_Pshadow_Pstandard_CObject;
	.scl	2;
	.type	32;
	.endef
	.globl	__Pshadow_Pio_CConsole_MprintError_Pshadow_Pstandard_CObject
	.align	16, 0x90
__Pshadow_Pio_CConsole_MprintError_Pshadow_Pstandard_CObject: # @_Pshadow_Pio_CConsole_MprintError_Pshadow_Pstandard_CObject
	.cfi_startproc
# BB#0:
	subl	$20, %esp
Ltmp835:
	.cfi_def_cfa_offset 24
	movl	24(%esp), %eax
	movl	%eax, 16(%esp)
	movl	28(%esp), %eax
	movl	%eax, 12(%esp)
	testl	%eax, %eax
	je	LBB192_1
# BB#2:                                 # %_label1
	movl	12(%esp), %eax
	movl	(%eax), %ecx
	movl	%eax, (%esp)
	calll	*56(%ecx)
	movl	%eax, 8(%esp)
	jmp	LBB192_3
LBB192_1:                               # %_label0
	movl	$L__string1422, 8(%esp)
LBB192_3:                               # %_label2
	movl	16(%esp), %eax
	movl	8(%esp), %ecx
	movl	%ecx, 4(%esp)
	movl	%eax, (%esp)
	calll	__Pshadow_Pio_CConsole_MprintError_Pshadow_Pstandard_CString
	addl	$20, %esp
	ret
	.cfi_endproc

	.def	 __Pshadow_Pio_CConsole_MprintLine_Pshadow_Pstandard_CObject;
	.scl	2;
	.type	32;
	.endef
	.globl	__Pshadow_Pio_CConsole_MprintLine_Pshadow_Pstandard_CObject
	.align	16, 0x90
__Pshadow_Pio_CConsole_MprintLine_Pshadow_Pstandard_CObject: # @_Pshadow_Pio_CConsole_MprintLine_Pshadow_Pstandard_CObject
	.cfi_startproc
# BB#0:
	subl	$16, %esp
Ltmp837:
	.cfi_def_cfa_offset 20
	movl	20(%esp), %eax
	movl	%eax, 12(%esp)
	movl	24(%esp), %eax
	movl	%eax, 8(%esp)
	movl	12(%esp), %ecx
	movl	%eax, 4(%esp)
	movl	%ecx, (%esp)
	calll	__Pshadow_Pio_CConsole_Mprint_Pshadow_Pstandard_CObject
	movl	%eax, (%esp)
	calll	__Pshadow_Pio_CConsole_MprintLine
	addl	$16, %esp
	ret
	.cfi_endproc

	.def	 __Pshadow_Pio_CConsole_MprintErrorLine_Pshadow_Pstandard_CObject;
	.scl	2;
	.type	32;
	.endef
	.globl	__Pshadow_Pio_CConsole_MprintErrorLine_Pshadow_Pstandard_CObject
	.align	16, 0x90
__Pshadow_Pio_CConsole_MprintErrorLine_Pshadow_Pstandard_CObject: # @_Pshadow_Pio_CConsole_MprintErrorLine_Pshadow_Pstandard_CObject
	.cfi_startproc
# BB#0:
	subl	$16, %esp
Ltmp839:
	.cfi_def_cfa_offset 20
	movl	20(%esp), %eax
	movl	%eax, 12(%esp)
	movl	24(%esp), %eax
	movl	%eax, 8(%esp)
	movl	12(%esp), %ecx
	movl	%eax, 4(%esp)
	movl	%ecx, (%esp)
	calll	__Pshadow_Pio_CConsole_MprintError_Pshadow_Pstandard_CObject
	movl	%eax, (%esp)
	calll	__Pshadow_Pio_CConsole_MprintErrorLine
	addl	$16, %esp
	ret
	.cfi_endproc

	.def	 __Pshadow_Pio_CConsole_Mcreate;
	.scl	2;
	.type	32;
	.endef
	.globl	__Pshadow_Pio_CConsole_Mcreate
	.align	16, 0x90
__Pshadow_Pio_CConsole_Mcreate:         # @_Pshadow_Pio_CConsole_Mcreate
	.cfi_startproc
# BB#0:
	pushl	%esi
Ltmp842:
	.cfi_def_cfa_offset 8
	subl	$8, %esp
Ltmp843:
	.cfi_def_cfa_offset 16
Ltmp844:
	.cfi_offset %esi, -8
	movl	16(%esp), %esi
	movl	%esi, 4(%esp)
	movl	%esi, (%esp)
	calll	__Pshadow_Pstandard_CObject_Mcreate
	movl	$__Pshadow_Pio_CConsole_Mclass, (%esi)
	movl	%esi, %eax
	addl	$8, %esp
	popl	%esi
	ret
	.cfi_endproc

	.def	 __Pshadow_Pio_CConsole_Mprint_Pshadow_Pstandard_CObject;
	.scl	2;
	.type	32;
	.endef
	.globl	__Pshadow_Pio_CConsole_Mprint_Pshadow_Pstandard_CObject
	.align	16, 0x90
__Pshadow_Pio_CConsole_Mprint_Pshadow_Pstandard_CObject: # @_Pshadow_Pio_CConsole_Mprint_Pshadow_Pstandard_CObject
	.cfi_startproc
# BB#0:
	subl	$20, %esp
Ltmp846:
	.cfi_def_cfa_offset 24
	movl	24(%esp), %eax
	movl	%eax, 16(%esp)
	movl	28(%esp), %eax
	movl	%eax, 12(%esp)
	testl	%eax, %eax
	je	LBB196_1
# BB#2:                                 # %_label4
	movl	12(%esp), %eax
	movl	(%eax), %ecx
	movl	%eax, (%esp)
	calll	*56(%ecx)
	movl	%eax, 8(%esp)
	jmp	LBB196_3
LBB196_1:                               # %_label3
	movl	$L__string1422, 8(%esp)
LBB196_3:                               # %_label5
	movl	16(%esp), %eax
	movl	8(%esp), %ecx
	movl	%ecx, 4(%esp)
	movl	%eax, (%esp)
	calll	__Pshadow_Pio_CConsole_Mprint_Pshadow_Pstandard_CString
	addl	$20, %esp
	ret
	.cfi_endproc

	.def	 __Pshadow_Putility_CArrayList_IArrayListIterator_MhasNext;
	.scl	2;
	.type	32;
	.endef
	.globl	__Pshadow_Putility_CArrayList_IArrayListIterator_MhasNext
	.align	16, 0x90
__Pshadow_Putility_CArrayList_IArrayListIterator_MhasNext: # @_Pshadow_Putility_CArrayList_IArrayListIterator_MhasNext
	.cfi_startproc
# BB#0:
	subl	$8, %esp
Ltmp848:
	.cfi_def_cfa_offset 12
	movl	12(%esp), %eax
	movl	%eax, 4(%esp)
	movl	%eax, (%esp)
	calll	__Pshadow_Putility_CArrayList_IArrayListIterator_McheckForModifications
	movl	4(%esp), %eax
	movl	8(%eax), %ecx
	movl	16(%eax), %eax
	cmpl	20(%ecx), %eax
	setl	%al
	addl	$8, %esp
	ret
	.cfi_endproc

	.def	 __Pshadow_Putility_CArrayList_IArrayListIterator_Mnext;
	.scl	2;
	.type	32;
	.endef
	.globl	__Pshadow_Putility_CArrayList_IArrayListIterator_Mnext
	.align	16, 0x90
__Pshadow_Putility_CArrayList_IArrayListIterator_Mnext: # @_Pshadow_Putility_CArrayList_IArrayListIterator_Mnext
	.cfi_startproc
# BB#0:
	pushl	%esi
Ltmp851:
	.cfi_def_cfa_offset 8
	subl	$12, %esp
Ltmp852:
	.cfi_def_cfa_offset 20
Ltmp853:
	.cfi_offset %esi, -8
	movl	20(%esp), %eax
	movl	%eax, 8(%esp)
	movl	%eax, (%esp)
	calll	__Pshadow_Putility_CArrayList_IArrayListIterator_McheckForModifications
	movl	8(%esp), %eax
	movl	8(%eax), %ecx
	movl	16(%eax), %eax
	cmpl	20(%ecx), %eax
	jl	LBB198_2
# BB#1:                                 # %_label0
	movl	$__Pshadow_Pstandard_CIndexOutOfBoundsException_Mclass, (%esp)
	calll	__Pshadow_Pstandard_CClass_Mallocate
	movl	%eax, %esi
	movl	%esi, (%esp)
	calll	__Pshadow_Pstandard_CIndexOutOfBoundsException_Mcreate
	movl	%esi, (%esp)
	calll	__Pshadow_Pstandard_CException_Mthrow__
LBB198_2:                               # %_label2
	movl	8(%esp), %eax
	movl	8(%eax), %ecx
	movl	16(%eax), %eax
	movl	4(%ecx), %ecx
	cmpl	$0, (%ecx,%eax,4)
	je	LBB198_5
# BB#3:                                 # %_label5
	movl	(%ecx,%eax,4), %eax
	movl	%eax, 4(%esp)
	movl	8(%esp), %eax
	incl	16(%eax)
	movl	4(%esp), %eax
	jmp	LBB198_4
LBB198_5:                               # %_label3
	movl	$__P_CUnexpectedNullException_Mclass, (%esp)
	calll	__Pshadow_Pstandard_CClass_Mallocate
	movl	%eax, %esi
	movl	%esi, (%esp)
	calll	__P_CUnexpectedNullException_Mcreate
	movl	%esi, (%esp)
	calll	__Pshadow_Pstandard_CException_Mthrow__
	xorl	%eax, %eax
LBB198_4:                               # %_label5
	addl	$12, %esp
	popl	%esi
	ret
	.cfi_endproc

	.def	 __Pshadow_Putility_CArrayList_IArrayListIterator_Mcreate;
	.scl	2;
	.type	32;
	.endef
	.globl	__Pshadow_Putility_CArrayList_IArrayListIterator_Mcreate
	.align	16, 0x90
__Pshadow_Putility_CArrayList_IArrayListIterator_Mcreate: # @_Pshadow_Putility_CArrayList_IArrayListIterator_Mcreate
	.cfi_startproc
# BB#0:
	subl	$12, %esp
Ltmp855:
	.cfi_def_cfa_offset 16
	movl	16(%esp), %eax
	movl	$__Pshadow_Putility_CArrayList_IArrayListIterator_Mclass, (%eax)
	movl	%eax, 8(%esp)
	movl	20(%esp), %ecx
	movl	%ecx, 4(%esp)
	movl	24(%esp), %ecx
	movl	%ecx, (%esp)
	movl	4(%esp), %ecx
	movl	8(%esp), %edx
	movl	%ecx, 8(%edx)
	movl	(%esp), %ecx
	movl	8(%esp), %edx
	movl	%ecx, 4(%edx)
	movl	8(%esp), %ecx
	movl	$0, 16(%ecx)
	movl	8(%esp), %ecx
	movl	8(%ecx), %edx
	movl	16(%edx), %edx
	movl	%edx, 12(%ecx)
	addl	$12, %esp
	ret
	.cfi_endproc

	.def	 __Pshadow_Putility_CArrayList_IArrayListIterator_McheckForModifications;
	.scl	2;
	.type	32;
	.endef
	.globl	__Pshadow_Putility_CArrayList_IArrayListIterator_McheckForModifications
	.align	16, 0x90
__Pshadow_Putility_CArrayList_IArrayListIterator_McheckForModifications: # @_Pshadow_Putility_CArrayList_IArrayListIterator_McheckForModifications
	.cfi_startproc
# BB#0:
	pushl	%esi
Ltmp858:
	.cfi_def_cfa_offset 8
	subl	$8, %esp
Ltmp859:
	.cfi_def_cfa_offset 16
Ltmp860:
	.cfi_offset %esi, -8
	movl	16(%esp), %eax
	movl	%eax, 4(%esp)
	movl	8(%eax), %ecx
	movl	12(%eax), %eax
	cmpl	16(%ecx), %eax
	je	LBB200_2
# BB#1:                                 # %_label6
	movl	$__P_CIllegalModificationException_Mclass, (%esp)
	calll	__Pshadow_Pstandard_CClass_Mallocate
	movl	%eax, %esi
	movl	%esi, (%esp)
	calll	__P_CIllegalModificationException_Mcreate
	movl	%esi, (%esp)
	calll	__Pshadow_Pstandard_CException_Mthrow__
LBB200_2:                               # %_label8
	addl	$8, %esp
	popl	%esi
	ret
	.cfi_endproc

	.def	 __Pshadow_Putility_CArrayList_Mclear;
	.scl	2;
	.type	32;
	.endef
	.globl	__Pshadow_Putility_CArrayList_Mclear
	.align	16, 0x90
__Pshadow_Putility_CArrayList_Mclear:   # @_Pshadow_Putility_CArrayList_Mclear
	.cfi_startproc
# BB#0:
	pushl	%eax
Ltmp862:
	.cfi_def_cfa_offset 8
	movl	8(%esp), %eax
	movl	%eax, (%esp)
	movl	$0, 20(%eax)
	movl	(%esp), %eax
	incl	16(%eax)
	popl	%eax
	ret
	.cfi_endproc

	.def	 __Pshadow_Putility_CArrayList_Miterator;
	.scl	2;
	.type	32;
	.endef
	.globl	__Pshadow_Putility_CArrayList_Miterator
	.align	16, 0x90
__Pshadow_Putility_CArrayList_Miterator: # @_Pshadow_Putility_CArrayList_Miterator
	.cfi_startproc
# BB#0:
	pushl	%esi
Ltmp865:
	.cfi_def_cfa_offset 8
	subl	$16, %esp
Ltmp866:
	.cfi_def_cfa_offset 24
Ltmp867:
	.cfi_offset %esi, -8
	movl	24(%esp), %eax
	movl	%eax, 12(%esp)
	movl	$__Pshadow_Putility_CArrayList_IArrayListIterator_Mclass, (%esp)
	calll	__Pshadow_Pstandard_CClass_Mallocate
	movl	%eax, %esi
	movl	12(%esp), %eax
	movl	12(%eax), %ecx
	movl	%ecx, 8(%esp)
	movl	%eax, 4(%esp)
	movl	%esi, (%esp)
	calll	__Pshadow_Putility_CArrayList_IArrayListIterator_Mcreate
	movl	%esi, %eax
	addl	$16, %esp
	popl	%esi
	ret
	.cfi_endproc

	.def	 __Pshadow_Putility_CArrayList_Mindex_Pshadow_Pstandard_Cint;
	.scl	2;
	.type	32;
	.endef
	.globl	__Pshadow_Putility_CArrayList_Mindex_Pshadow_Pstandard_Cint
	.align	16, 0x90
__Pshadow_Putility_CArrayList_Mindex_Pshadow_Pstandard_Cint: # @_Pshadow_Putility_CArrayList_Mindex_Pshadow_Pstandard_Cint
	.cfi_startproc
# BB#0:
	pushl	%esi
Ltmp870:
	.cfi_def_cfa_offset 8
	subl	$16, %esp
Ltmp871:
	.cfi_def_cfa_offset 24
Ltmp872:
	.cfi_offset %esi, -8
	movl	24(%esp), %eax
	movl	%eax, 12(%esp)
	movl	28(%esp), %eax
	movl	%eax, 8(%esp)
	testl	%eax, %eax
	sets	7(%esp)
	js	LBB203_2
# BB#1:                                 # %_label4
	movl	12(%esp), %eax
	movl	8(%esp), %ecx
	cmpl	20(%eax), %ecx
	setge	7(%esp)
LBB203_2:                               # %_label3
	cmpb	$1, 7(%esp)
	jne	LBB203_4
# BB#3:                                 # %_label0
	movl	$__Pshadow_Pstandard_CIndexOutOfBoundsException_Mclass, (%esp)
	calll	__Pshadow_Pstandard_CClass_Mallocate
	movl	%eax, %esi
	movl	%esi, (%esp)
	calll	__Pshadow_Pstandard_CIndexOutOfBoundsException_Mcreate
	movl	%esi, (%esp)
	calll	__Pshadow_Pstandard_CException_Mthrow__
LBB203_4:                               # %_label2
	movl	12(%esp), %eax
	movl	4(%eax), %eax
	movl	8(%esp), %ecx
	cmpl	$0, (%eax,%ecx,4)
	je	LBB203_7
# BB#5:                                 # %_label7
	movl	(%eax,%ecx,4), %eax
	jmp	LBB203_6
LBB203_7:                               # %_label5
	movl	$__P_CUnexpectedNullException_Mclass, (%esp)
	calll	__Pshadow_Pstandard_CClass_Mallocate
	movl	%eax, %esi
	movl	%esi, (%esp)
	calll	__P_CUnexpectedNullException_Mcreate
	movl	%esi, (%esp)
	calll	__Pshadow_Pstandard_CException_Mthrow__
	xorl	%eax, %eax
LBB203_6:                               # %_label7
	addl	$16, %esp
	popl	%esi
	ret
	.cfi_endproc

	.def	 __Pshadow_Putility_CArrayList_Mindex_Pshadow_Pstandard_Cint_CV;
	.scl	2;
	.type	32;
	.endef
	.globl	__Pshadow_Putility_CArrayList_Mindex_Pshadow_Pstandard_Cint_CV
	.align	16, 0x90
__Pshadow_Putility_CArrayList_Mindex_Pshadow_Pstandard_Cint_CV: # @_Pshadow_Putility_CArrayList_Mindex_Pshadow_Pstandard_Cint_CV
	.cfi_startproc
# BB#0:
	pushl	%esi
Ltmp875:
	.cfi_def_cfa_offset 8
	subl	$20, %esp
Ltmp876:
	.cfi_def_cfa_offset 28
Ltmp877:
	.cfi_offset %esi, -8
	movl	28(%esp), %eax
	movl	%eax, 16(%esp)
	movl	32(%esp), %eax
	movl	%eax, 12(%esp)
	movl	36(%esp), %eax
	movl	%eax, 8(%esp)
	cmpl	$0, 12(%esp)
	sets	7(%esp)
	js	LBB204_2
# BB#1:                                 # %_label12
	movl	16(%esp), %eax
	movl	12(%esp), %ecx
	cmpl	20(%eax), %ecx
	setg	7(%esp)
LBB204_2:                               # %_label11
	cmpb	$1, 7(%esp)
	jne	LBB204_4
# BB#3:                                 # %_label8
	movl	$__Pshadow_Pstandard_CIndexOutOfBoundsException_Mclass, (%esp)
	calll	__Pshadow_Pstandard_CClass_Mallocate
	movl	%eax, %esi
	movl	%esi, (%esp)
	calll	__Pshadow_Pstandard_CIndexOutOfBoundsException_Mcreate
	movl	%esi, (%esp)
	calll	__Pshadow_Pstandard_CException_Mthrow__
LBB204_4:                               # %_label10
	movl	16(%esp), %eax
	movl	12(%esp), %ecx
	cmpl	20(%eax), %ecx
	jne	LBB204_8
# BB#5:                                 # %_label13
	movl	16(%esp), %eax
	movl	20(%eax), %ecx
	cmpl	8(%eax), %ecx
	jl	LBB204_7
# BB#6:                                 # %_label16
	movl	16(%esp), %eax
	movl	%eax, (%esp)
	calll	__Pshadow_Putility_CArrayList_Mgrow
LBB204_7:                               # %_label18
	movl	16(%esp), %eax
	incl	20(%eax)
LBB204_8:                               # %_label15
	movl	16(%esp), %eax
	movl	4(%eax), %eax
	movl	8(%esp), %ecx
	movl	12(%esp), %edx
	movl	%ecx, (%eax,%edx,4)
	movl	16(%esp), %eax
	incl	16(%eax)
	addl	$20, %esp
	popl	%esi
	ret
	.cfi_endproc

	.def	 __Pshadow_Putility_CArrayList_Mremove_CV;
	.scl	2;
	.type	32;
	.endef
	.globl	__Pshadow_Putility_CArrayList_Mremove_CV
	.align	16, 0x90
__Pshadow_Putility_CArrayList_Mremove_CV: # @_Pshadow_Putility_CArrayList_Mremove_CV
	.cfi_startproc
# BB#0:
	subl	$20, %esp
Ltmp879:
	.cfi_def_cfa_offset 24
	movl	24(%esp), %eax
	movl	%eax, 16(%esp)
	movl	28(%esp), %eax
	movl	%eax, 12(%esp)
	movl	16(%esp), %ecx
	movl	(%ecx), %edx
	movl	%eax, 4(%esp)
	movl	%ecx, (%esp)
	calll	*84(%edx)
	movl	%eax, 8(%esp)
	cmpl	$-1, %eax
	jne	LBB205_2
# BB#1:                                 # %_label19
	xorb	%al, %al
	addl	$20, %esp
	ret
LBB205_2:                               # %_label21
	movl	16(%esp), %eax
	movl	(%eax), %ecx
	movl	8(%esp), %edx
	movl	%edx, 4(%esp)
	movl	%eax, (%esp)
	calll	*72(%ecx)
	movb	$1, %al
	addl	$20, %esp
	ret
	.cfi_endproc

	.def	 __Pshadow_Putility_CArrayList_Mgrow;
	.scl	2;
	.type	32;
	.endef
	.globl	__Pshadow_Putility_CArrayList_Mgrow
	.align	16, 0x90
__Pshadow_Putility_CArrayList_Mgrow:    # @_Pshadow_Putility_CArrayList_Mgrow
	.cfi_startproc
# BB#0:
	pushl	%ebp
Ltmp883:
	.cfi_def_cfa_offset 8
Ltmp884:
	.cfi_offset %ebp, -8
	movl	%esp, %ebp
Ltmp885:
	.cfi_def_cfa_register %ebp
	pushl	%esi
	andl	$-8, %esp
	subl	$32, %esp
Ltmp886:
	.cfi_offset %esi, -12
	movl	8(%ebp), %eax
	movl	%eax, 24(%esp)
	movl	8(%eax), %esi
	movl	12(%eax), %eax
	addl	%esi, %esi
	movl	%esi, 4(%esp)
	movl	%eax, (%esp)
	calll	__Pshadow_Pstandard_CClass_Mallocate_Pshadow_Pstandard_Cint
	movl	%esi, 20(%esp)
	movl	%eax, 16(%esp)
	movl	$0, 12(%esp)
	jmp	LBB206_2
	.align	16, 0x90
LBB206_1:                               # %_label22
                                        #   in Loop: Header=BB206_2 Depth=1
	movl	24(%esp), %eax
	movl	4(%eax), %ecx
	movl	12(%esp), %eax
	movl	(%ecx,%eax,4), %ecx
	movl	16(%esp), %edx
	movl	%ecx, (%edx,%eax,4)
	incl	12(%esp)
LBB206_2:                               # %_label23
                                        # =>This Inner Loop Header: Depth=1
	movl	24(%esp), %eax
	movl	12(%esp), %ecx
	cmpl	8(%eax), %ecx
	jl	LBB206_1
# BB#3:                                 # %_label24
	movl	16(%esp), %eax
	movl	20(%esp), %ecx
	movl	24(%esp), %edx
	movl	%ecx, 8(%edx)
	movl	%eax, 4(%edx)
	leal	-4(%ebp), %esp
	popl	%esi
	popl	%ebp
	ret
	.cfi_endproc

	.def	 __Pshadow_Putility_CArrayList_Mdelete_Pshadow_Pstandard_Cint;
	.scl	2;
	.type	32;
	.endef
	.globl	__Pshadow_Putility_CArrayList_Mdelete_Pshadow_Pstandard_Cint
	.align	16, 0x90
__Pshadow_Putility_CArrayList_Mdelete_Pshadow_Pstandard_Cint: # @_Pshadow_Putility_CArrayList_Mdelete_Pshadow_Pstandard_Cint
	.cfi_startproc
# BB#0:
	pushl	%esi
Ltmp889:
	.cfi_def_cfa_offset 8
	subl	$24, %esp
Ltmp890:
	.cfi_def_cfa_offset 32
Ltmp891:
	.cfi_offset %esi, -8
	movl	32(%esp), %eax
	movl	%eax, 20(%esp)
	movl	36(%esp), %eax
	movl	%eax, 16(%esp)
	testl	%eax, %eax
	sets	15(%esp)
	js	LBB207_2
# BB#1:                                 # %_label29
	movl	20(%esp), %eax
	movl	16(%esp), %ecx
	cmpl	20(%eax), %ecx
	setge	15(%esp)
LBB207_2:                               # %_label28
	cmpb	$1, 15(%esp)
	jne	LBB207_4
# BB#3:                                 # %_label25
	movl	$__Pshadow_Pstandard_CIndexOutOfBoundsException_Mclass, (%esp)
	calll	__Pshadow_Pstandard_CClass_Mallocate
	movl	%eax, %esi
	movl	%esi, (%esp)
	calll	__Pshadow_Pstandard_CIndexOutOfBoundsException_Mcreate
	movl	%esi, (%esp)
	calll	__Pshadow_Pstandard_CException_Mthrow__
LBB207_4:                               # %_label27
	movl	20(%esp), %eax
	movl	4(%eax), %eax
	movl	16(%esp), %ecx
	cmpl	$0, (%eax,%ecx,4)
	je	LBB207_10
# BB#5:                                 # %_label32
	movl	(%eax,%ecx,4), %eax
	movl	%eax, 8(%esp)
	movl	16(%esp), %eax
	movl	%eax, 4(%esp)
	jmp	LBB207_7
	.align	16, 0x90
LBB207_6:                               # %_label33
                                        #   in Loop: Header=BB207_7 Depth=1
	movl	20(%esp), %eax
	movl	4(%eax), %eax
	movl	4(%esp), %ecx
	movl	4(%eax,%ecx,4), %edx
	movl	%edx, (%eax,%ecx,4)
	incl	4(%esp)
LBB207_7:                               # %_label34
                                        # =>This Inner Loop Header: Depth=1
	movl	20(%esp), %eax
	movl	20(%eax), %eax
	decl	%eax
	cmpl	%eax, 4(%esp)
	jl	LBB207_6
# BB#8:                                 # %_label35
	movl	20(%esp), %eax
	decl	20(%eax)
	movl	20(%esp), %eax
	incl	16(%eax)
	movl	8(%esp), %eax
	jmp	LBB207_9
LBB207_10:                              # %_label30
	movl	$__P_CUnexpectedNullException_Mclass, (%esp)
	calll	__Pshadow_Pstandard_CClass_Mallocate
	movl	%eax, %esi
	movl	%esi, (%esp)
	calll	__P_CUnexpectedNullException_Mcreate
	movl	%esi, (%esp)
	calll	__Pshadow_Pstandard_CException_Mthrow__
	xorl	%eax, %eax
LBB207_9:                               # %_label35
	addl	$24, %esp
	popl	%esi
	ret
	.cfi_endproc

	.def	 __Pshadow_Putility_CArrayList_Mcontains_CV;
	.scl	2;
	.type	32;
	.endef
	.globl	__Pshadow_Putility_CArrayList_Mcontains_CV
	.align	16, 0x90
__Pshadow_Putility_CArrayList_Mcontains_CV: # @_Pshadow_Putility_CArrayList_Mcontains_CV
	.cfi_startproc
# BB#0:
	subl	$16, %esp
Ltmp893:
	.cfi_def_cfa_offset 20
	movl	20(%esp), %eax
	movl	%eax, 12(%esp)
	movl	24(%esp), %eax
	movl	%eax, 8(%esp)
	movl	12(%esp), %ecx
	movl	(%ecx), %edx
	movl	%eax, 4(%esp)
	movl	%ecx, (%esp)
	calll	*84(%edx)
	cmpl	$-1, %eax
	setne	%al
	addl	$16, %esp
	ret
	.cfi_endproc

	.def	 __Pshadow_Putility_CArrayList_MindexOf_CV;
	.scl	2;
	.type	32;
	.endef
	.globl	__Pshadow_Putility_CArrayList_MindexOf_CV
	.align	16, 0x90
__Pshadow_Putility_CArrayList_MindexOf_CV: # @_Pshadow_Putility_CArrayList_MindexOf_CV
	.cfi_startproc
# BB#0:
	subl	$24, %esp
Ltmp895:
	.cfi_def_cfa_offset 28
	movl	28(%esp), %eax
	movl	%eax, 20(%esp)
	movl	32(%esp), %eax
	movl	%eax, 16(%esp)
	movl	$0, 12(%esp)
	jmp	LBB209_6
	.align	16, 0x90
LBB209_5:                               # %_label41
                                        #   in Loop: Header=BB209_6 Depth=1
	incl	12(%esp)
LBB209_6:                               # %_label37
                                        # =>This Inner Loop Header: Depth=1
	movl	20(%esp), %eax
	movl	12(%esp), %ecx
	cmpl	8(%eax), %ecx
	jge	LBB209_7
# BB#1:                                 # %_label36
                                        #   in Loop: Header=BB209_6 Depth=1
	movl	20(%esp), %eax
	movl	4(%eax), %eax
	movl	12(%esp), %ecx
	cmpl	$0, (%eax,%ecx,4)
	jne	LBB209_3
# BB#2:                                 # %_label42
                                        #   in Loop: Header=BB209_6 Depth=1
	cmpl	$0, 16(%esp)
	sete	11(%esp)
	jmp	LBB209_4
	.align	16, 0x90
LBB209_3:                               # %_label43
                                        #   in Loop: Header=BB209_6 Depth=1
	movl	(%eax,%ecx,4), %eax
	movl	(%eax), %ecx
	movl	16(%esp), %edx
	movl	%edx, 4(%esp)
	movl	%eax, (%esp)
	calll	*44(%ecx)
	andb	$1, %al
	movb	%al, 11(%esp)
LBB209_4:                               # %_label44
                                        #   in Loop: Header=BB209_6 Depth=1
	cmpb	$1, 11(%esp)
	jne	LBB209_5
# BB#8:                                 # %_label39
	movl	12(%esp), %eax
	addl	$24, %esp
	ret
LBB209_7:                               # %_label38
	movl	$-1, %eax
	addl	$24, %esp
	ret
	.cfi_endproc

	.def	 __Pshadow_Putility_CArrayList_Madd_CV;
	.scl	2;
	.type	32;
	.endef
	.globl	__Pshadow_Putility_CArrayList_Madd_CV
	.align	16, 0x90
__Pshadow_Putility_CArrayList_Madd_CV:  # @_Pshadow_Putility_CArrayList_Madd_CV
	.cfi_startproc
# BB#0:
	subl	$12, %esp
Ltmp897:
	.cfi_def_cfa_offset 16
	movl	16(%esp), %eax
	movl	%eax, 8(%esp)
	movl	20(%esp), %eax
	movl	%eax, 4(%esp)
	movl	8(%esp), %eax
	movl	20(%eax), %ecx
	cmpl	8(%eax), %ecx
	jl	LBB210_2
# BB#1:                                 # %_label45
	movl	8(%esp), %eax
	movl	%eax, (%esp)
	calll	__Pshadow_Putility_CArrayList_Mgrow
LBB210_2:                               # %_label47
	movl	8(%esp), %ecx
	movl	4(%ecx), %eax
	movl	20(%ecx), %ecx
	movl	4(%esp), %edx
	movl	%edx, (%eax,%ecx,4)
	movl	8(%esp), %eax
	incl	20(%eax)
	movl	8(%esp), %eax
	incl	16(%eax)
	movb	$1, %al
	addl	$12, %esp
	ret
	.cfi_endproc

	.def	 __Pshadow_Putility_CArrayList_Mcreate;
	.scl	2;
	.type	32;
	.endef
	.globl	__Pshadow_Putility_CArrayList_Mcreate
	.align	16, 0x90
__Pshadow_Putility_CArrayList_Mcreate:  # @_Pshadow_Putility_CArrayList_Mcreate
	.cfi_startproc
# BB#0:
	pushl	%edi
Ltmp901:
	.cfi_def_cfa_offset 8
	pushl	%esi
Ltmp902:
	.cfi_def_cfa_offset 12
	subl	$16, %esp
Ltmp903:
	.cfi_def_cfa_offset 28
Ltmp904:
	.cfi_offset %esi, -12
Ltmp905:
	.cfi_offset %edi, -8
	movl	28(%esp), %esi
	movl	$__Pshadow_Putility_CArrayList_Mclass, (%esi)
	movl	%esi, 12(%esp)
	movl	32(%esp), %eax
	movl	%eax, 8(%esp)
	movl	12(%esp), %ecx
	movl	%eax, 12(%ecx)
	movl	12(%esp), %eax
	movl	$0, 16(%eax)
	movl	12(%esp), %edi
	movl	8(%esp), %eax
	movl	%eax, (%esp)
	movl	$10, 4(%esp)
	calll	__Pshadow_Pstandard_CClass_Mallocate_Pshadow_Pstandard_Cint
	movl	%eax, 4(%edi)
	movl	$10, 8(%edi)
	movl	12(%esp), %eax
	movl	$0, 20(%eax)
	movl	%esi, %eax
	addl	$16, %esp
	popl	%esi
	popl	%edi
	ret
	.cfi_endproc

	.def	 __Pshadow_Putility_CArrayList_Msize;
	.scl	2;
	.type	32;
	.endef
	.globl	__Pshadow_Putility_CArrayList_Msize
	.align	16, 0x90
__Pshadow_Putility_CArrayList_Msize:    # @_Pshadow_Putility_CArrayList_Msize
	.cfi_startproc
# BB#0:
	pushl	%eax
Ltmp907:
	.cfi_def_cfa_offset 8
	movl	8(%esp), %eax
	movl	%eax, (%esp)
	movl	20(%eax), %eax
	popl	%edx
	ret
	.cfi_endproc

	.def	 __P_CIllegalModificationException_Mcreate;
	.scl	2;
	.type	32;
	.endef
	.globl	__P_CIllegalModificationException_Mcreate
	.align	16, 0x90
__P_CIllegalModificationException_Mcreate: # @_P_CIllegalModificationException_Mcreate
	.cfi_startproc
# BB#0:
	pushl	%eax
Ltmp909:
	.cfi_def_cfa_offset 8
	movl	8(%esp), %eax
	movl	$__P_CIllegalModificationException_Mclass, (%eax)
	movl	%eax, (%esp)
	popl	%edx
	ret
	.cfi_endproc

	.def	 __Pshadow_Putility_CRandom_MnextUInt_Pshadow_Pstandard_Cuint;
	.scl	2;
	.type	32;
	.endef
	.globl	__Pshadow_Putility_CRandom_MnextUInt_Pshadow_Pstandard_Cuint
	.align	16, 0x90
__Pshadow_Putility_CRandom_MnextUInt_Pshadow_Pstandard_Cuint: # @_Pshadow_Putility_CRandom_MnextUInt_Pshadow_Pstandard_Cuint
	.cfi_startproc
# BB#0:
	subl	$12, %esp
Ltmp911:
	.cfi_def_cfa_offset 16
	movl	16(%esp), %eax
	movl	%eax, 8(%esp)
	movl	20(%esp), %eax
	movl	%eax, 4(%esp)
	movl	8(%esp), %eax
	movl	(%eax), %ecx
	movl	%eax, (%esp)
	calll	*72(%ecx)
	xorl	%edx, %edx
	divl	4(%esp)
	movl	%edx, %eax
	addl	$12, %esp
	ret
	.cfi_endproc

	.def	 __Pshadow_Putility_CRandom_Mcreate;
	.scl	2;
	.type	32;
	.endef
	.globl	__Pshadow_Putility_CRandom_Mcreate
	.align	16, 0x90
__Pshadow_Putility_CRandom_Mcreate:     # @_Pshadow_Putility_CRandom_Mcreate
	.cfi_startproc
# BB#0:
	pushl	%edi
Ltmp915:
	.cfi_def_cfa_offset 8
	pushl	%esi
Ltmp916:
	.cfi_def_cfa_offset 12
	subl	$16, %esp
Ltmp917:
	.cfi_def_cfa_offset 28
Ltmp918:
	.cfi_offset %esi, -12
Ltmp919:
	.cfi_offset %edi, -8
	movl	28(%esp), %esi
	movl	$__Pshadow_Putility_CRandom_Mclass, (%esi)
	movl	%esi, 12(%esp)
	cmpl	$0, __Pshadow_Pstandard_CSystem_Minstance
	jne	LBB215_2
# BB#1:                                 # %_label0
	movl	$__Pshadow_Pstandard_CSystem_Mclass, (%esp)
	calll	__Pshadow_Pstandard_CClass_Mallocate
	movl	%eax, (%esp)
	calll	__Pshadow_Pstandard_CSystem_Mcreate
	movl	%eax, __Pshadow_Pstandard_CSystem_Minstance
LBB215_2:                               # %_label1
	movl	__Pshadow_Pstandard_CSystem_Minstance, %eax
	movl	%eax, (%esp)
	calll	__Pshadow_Pstandard_CSystem_MnanoTime
	movl	12(%esp), %ecx
	movl	(%ecx), %edi
	movl	%edx, 8(%esp)
	movl	%eax, 4(%esp)
	movl	%ecx, (%esp)
	calll	*80(%edi)
	movl	%esi, %eax
	addl	$16, %esp
	popl	%esi
	popl	%edi
	ret
	.cfi_endproc

	.def	 __Pshadow_Putility_CRandom_Mcreate_Pshadow_Pstandard_Culong;
	.scl	2;
	.type	32;
	.endef
	.globl	__Pshadow_Putility_CRandom_Mcreate_Pshadow_Pstandard_Culong
	.align	16, 0x90
__Pshadow_Putility_CRandom_Mcreate_Pshadow_Pstandard_Culong: # @_Pshadow_Putility_CRandom_Mcreate_Pshadow_Pstandard_Culong
	.cfi_startproc
# BB#0:
	pushl	%ebp
Ltmp923:
	.cfi_def_cfa_offset 8
Ltmp924:
	.cfi_offset %ebp, -8
	movl	%esp, %ebp
Ltmp925:
	.cfi_def_cfa_register %ebp
	pushl	%edi
	pushl	%esi
	andl	$-8, %esp
	subl	$32, %esp
Ltmp926:
	.cfi_offset %esi, -16
Ltmp927:
	.cfi_offset %edi, -12
	movl	8(%ebp), %esi
	movl	$__Pshadow_Putility_CRandom_Mclass, (%esi)
	movl	%esi, 28(%esp)
	movl	16(%ebp), %eax
	movl	%eax, 20(%esp)
	movl	12(%ebp), %ecx
	movl	%ecx, 16(%esp)
	movl	28(%esp), %edx
	movl	(%edx), %edi
	movl	%eax, 8(%esp)
	movl	%ecx, 4(%esp)
	movl	%edx, (%esp)
	calll	*80(%edi)
	movl	%esi, %eax
	leal	-8(%ebp), %esp
	popl	%esi
	popl	%edi
	popl	%ebp
	ret
	.cfi_endproc

	.def	 __Pshadow_Putility_CRandom_MnextInt;
	.scl	2;
	.type	32;
	.endef
	.globl	__Pshadow_Putility_CRandom_MnextInt
	.align	16, 0x90
__Pshadow_Putility_CRandom_MnextInt:    # @_Pshadow_Putility_CRandom_MnextInt
	.cfi_startproc
# BB#0:
	subl	$8, %esp
Ltmp929:
	.cfi_def_cfa_offset 12
	movl	12(%esp), %eax
	movl	%eax, 4(%esp)
	movl	(%eax), %ecx
	movl	%eax, (%esp)
	calll	*72(%ecx)
	addl	$8, %esp
	ret
	.cfi_endproc

	.def	 __Pshadow_Putility_CRandom_MnextInt_Pshadow_Pstandard_Cint;
	.scl	2;
	.type	32;
	.endef
	.globl	__Pshadow_Putility_CRandom_MnextInt_Pshadow_Pstandard_Cint
	.align	16, 0x90
__Pshadow_Putility_CRandom_MnextInt_Pshadow_Pstandard_Cint: # @_Pshadow_Putility_CRandom_MnextInt_Pshadow_Pstandard_Cint
	.cfi_startproc
# BB#0:
	subl	$16, %esp
Ltmp931:
	.cfi_def_cfa_offset 20
	movl	20(%esp), %eax
	movl	%eax, 12(%esp)
	movl	24(%esp), %eax
	movl	%eax, 8(%esp)
	movl	12(%esp), %ecx
	movl	(%ecx), %edx
	movl	%eax, 4(%esp)
	movl	%ecx, (%esp)
	calll	*76(%edx)
	addl	$16, %esp
	ret
	.cfi_endproc

	.def	 __Pshadow_Putility_CRandom_Mseed_Pshadow_Pstandard_Culong;
	.scl	2;
	.type	32;
	.endef
	.globl	__Pshadow_Putility_CRandom_Mseed_Pshadow_Pstandard_Culong
	.align	16, 0x90
__Pshadow_Putility_CRandom_Mseed_Pshadow_Pstandard_Culong: # @_Pshadow_Putility_CRandom_Mseed_Pshadow_Pstandard_Culong
	.cfi_startproc
# BB#0:
	pushl	%eax
Ltmp933:
	.cfi_def_cfa_offset 8
	movl	$0, (%esp)
	calll	_srand
	popl	%eax
	ret
	.cfi_endproc

	.def	 __Pshadow_Putility_CRandom_MnextUInt;
	.scl	2;
	.type	32;
	.endef
	.globl	__Pshadow_Putility_CRandom_MnextUInt
	.align	16, 0x90
__Pshadow_Putility_CRandom_MnextUInt:   # @_Pshadow_Putility_CRandom_MnextUInt
	.cfi_startproc
# BB#0:
	jmp	_rand                   # TAILCALL
	.cfi_endproc

	.def	 __Pshadow_Ptest_CSortTest_McheckArray_Pshadow_Pstandard_Cint_A1;
	.scl	2;
	.type	32;
	.endef
	.globl	__Pshadow_Ptest_CSortTest_McheckArray_Pshadow_Pstandard_Cint_A1
	.align	16, 0x90
__Pshadow_Ptest_CSortTest_McheckArray_Pshadow_Pstandard_Cint_A1: # @_Pshadow_Ptest_CSortTest_McheckArray_Pshadow_Pstandard_Cint_A1
	.cfi_startproc
# BB#0:
	pushl	%ebp
Ltmp937:
	.cfi_def_cfa_offset 8
Ltmp938:
	.cfi_offset %ebp, -8
	movl	%esp, %ebp
Ltmp939:
	.cfi_def_cfa_register %ebp
	pushl	%ebx
	pushl	%edi
	pushl	%esi
	andl	$-8, %esp
	subl	$56, %esp
Ltmp940:
	.cfi_offset %esi, -20
Ltmp941:
	.cfi_offset %edi, -16
Ltmp942:
	.cfi_offset %ebx, -12
	movl	8(%ebp), %eax
	movl	%eax, 48(%esp)
	movl	16(%ebp), %eax
	movl	%eax, 44(%esp)
	movl	12(%ebp), %eax
	movl	%eax, 40(%esp)
	movl	48(%esp), %eax
	movl	(%eax), %ecx
	movl	%eax, (%esp)
	calll	*88(%ecx)
	movl	%eax, 36(%esp)
	movl	$0, 32(%esp)
	jmp	LBB221_5
	.align	16, 0x90
LBB221_4:                               # %_label5
                                        #   in Loop: Header=BB221_5 Depth=1
	movl	32(%esp), %eax
	movl	40(%esp), %ecx
	movl	(%ecx,%eax,4), %eax
	movl	%eax, 36(%esp)
	incl	32(%esp)
LBB221_5:                               # %_label1
                                        # =>This Inner Loop Header: Depth=1
	movl	32(%esp), %eax
	movl	%eax, 28(%esp)          # 4-byte Spill
	movl	40(%esp), %ebx
	movl	44(%esp), %edi
	movl	$1, 4(%esp)
	movl	$__Pshadow_Pstandard_Cint_Mclass, (%esp)
	calll	__Pshadow_Pstandard_CClass_Mallocate_Pshadow_Pstandard_Cint
	movl	%eax, %esi
	movl	%edi, (%esi)
	movl	$__Pshadow_Pstandard_CArray_Mclass, (%esp)
	calll	__Pshadow_Pstandard_CClass_Mallocate
	movl	%ebx, 16(%esp)
	movl	%esi, 8(%esp)
	movl	%eax, (%esp)
	movl	$1, 12(%esp)
	movl	$__Pshadow_Pstandard_Cint_Mclass, 4(%esp)
	calll	__Pshadow_Pstandard_CArray_Mcreate_Pshadow_Pstandard_Cint_A1_Pshadow_Pstandard_CObject
	movl	(%eax), %eax
	movl	84(%eax), %eax
	movl	%eax, 24(%esp)          # 4-byte Spill
	movl	$1, 4(%esp)
	movl	$__Pshadow_Pstandard_Cint_Mclass, (%esp)
	calll	__Pshadow_Pstandard_CClass_Mallocate_Pshadow_Pstandard_Cint
	movl	%eax, %esi
	movl	%edi, (%esi)
	movl	$__Pshadow_Pstandard_CArray_Mclass, (%esp)
	calll	__Pshadow_Pstandard_CClass_Mallocate
	movl	%ebx, 16(%esp)
	movl	%esi, 8(%esp)
	movl	%eax, (%esp)
	movl	$1, 12(%esp)
	movl	$__Pshadow_Pstandard_Cint_Mclass, 4(%esp)
	calll	__Pshadow_Pstandard_CArray_Mcreate_Pshadow_Pstandard_Cint_A1_Pshadow_Pstandard_CObject
	movl	%eax, (%esp)
	calll	*24(%esp)               # 4-byte Folded Reload
	cmpl	%eax, 28(%esp)          # 4-byte Folded Reload
	jge	LBB221_6
# BB#1:                                 # %_label0
                                        #   in Loop: Header=BB221_5 Depth=1
	movl	32(%esp), %eax
	movl	40(%esp), %ecx
	movl	(%ecx,%eax,4), %eax
	cmpl	36(%esp), %eax
	jge	LBB221_4
# BB#2:                                 # %_label3
	xorb	%al, %al
	jmp	LBB221_3
LBB221_6:                               # %_label2
	movb	$1, %al
LBB221_3:                               # %_label3
	leal	-12(%ebp), %esp
	popl	%esi
	popl	%edi
	popl	%ebx
	popl	%ebp
	ret
	.cfi_endproc

	.def	 __Pshadow_Ptest_CSortTest_Mstop_Pshadow_Pstandard_Cint_A1_Pshadow_Pstandard_CString;
	.scl	2;
	.type	32;
	.endef
	.globl	__Pshadow_Ptest_CSortTest_Mstop_Pshadow_Pstandard_Cint_A1_Pshadow_Pstandard_CString
	.align	16, 0x90
__Pshadow_Ptest_CSortTest_Mstop_Pshadow_Pstandard_Cint_A1_Pshadow_Pstandard_CString: # @_Pshadow_Ptest_CSortTest_Mstop_Pshadow_Pstandard_Cint_A1_Pshadow_Pstandard_CString
	.cfi_startproc
# BB#0:
	pushl	%ebp
Ltmp946:
	.cfi_def_cfa_offset 8
Ltmp947:
	.cfi_offset %ebp, -8
	movl	%esp, %ebp
Ltmp948:
	.cfi_def_cfa_register %ebp
	pushl	%ebx
	pushl	%edi
	pushl	%esi
	andl	$-8, %esp
	subl	$80, %esp
Ltmp949:
	.cfi_offset %esi, -20
Ltmp950:
	.cfi_offset %edi, -16
Ltmp951:
	.cfi_offset %ebx, -12
	movl	8(%ebp), %eax
	movl	%eax, 72(%esp)
	movl	16(%ebp), %eax
	movl	%eax, 68(%esp)
	movl	12(%ebp), %eax
	movl	%eax, 64(%esp)
	movl	20(%ebp), %eax
	movl	%eax, 60(%esp)
	movl	72(%esp), %eax
	movl	(%eax), %ecx
	movl	%eax, (%esp)
	calll	*92(%ecx)
	fstpl	48(%esp)
	movl	72(%esp), %eax
	movl	64(%esp), %ecx
	movl	68(%esp), %edx
	movl	%edx, 8(%esp)
	movl	%ecx, 4(%esp)
	movl	%eax, (%esp)
	calll	__Pshadow_Ptest_CSortTest_McheckArray_Pshadow_Pstandard_Cint_A1
	testb	$1, %al
	je	LBB222_13
# BB#1:                                 # %_label6
	cmpl	$0, __Pshadow_Pio_CConsole_Minstance
	jne	LBB222_3
# BB#2:                                 # %_label9
	movl	$__Pshadow_Pio_CConsole_Mclass, (%esp)
	calll	__Pshadow_Pstandard_CClass_Mallocate
	movl	%eax, (%esp)
	calll	__Pshadow_Pio_CConsole_Mcreate
	movl	%eax, __Pshadow_Pio_CConsole_Minstance
LBB222_3:                               # %_label10
	movl	__Pshadow_Pio_CConsole_Minstance, %edi
	cmpl	$0, 60(%esp)
	je	LBB222_4
# BB#5:                                 # %_label12
	movl	60(%esp), %eax
	movl	(%eax), %ecx
	movl	%eax, (%esp)
	calll	*56(%ecx)
	movl	%eax, 44(%esp)
	jmp	LBB222_6
LBB222_13:                              # %_label7
	cmpl	$0, __Pshadow_Pio_CConsole_Minstance
	jne	LBB222_15
# BB#14:                                # %_label20
